Archive member included to satisfy reference by file (symbol)

../../../drivers/crypto/lib/libcrypto.a(aes.o)
                              ./objects/cmac.o (aes_init)
d:/program files/gnu arm embedded toolchain/9 2020-q2-update/bin/../lib/gcc/arm-none-eabi/9.3.1/../../../../arm-none-eabi/lib/thumb/v7e-m/nofp\libm.a(lib_a-s_ceil.o)
                              ./objects/radio.o (ceil)
d:/program files/gnu arm embedded toolchain/9 2020-q2-update/bin/../lib/gcc/arm-none-eabi/9.3.1/../../../../arm-none-eabi/lib/thumb/v7e-m/nofp\libm.a(lib_a-s_floor.o)
                              ./objects/radio.o (floor)
d:/program files/gnu arm embedded toolchain/9 2020-q2-update/bin/../lib/gcc/arm-none-eabi/9.3.1/../../../../arm-none-eabi/lib/thumb/v7e-m/nofp\libm.a(lib_a-s_rint.o)
                              ./objects/radio.o (rint)
d:/program files/gnu arm embedded toolchain/9 2020-q2-update/bin/../lib/gcc/arm-none-eabi/9.3.1/../../../../arm-none-eabi/lib/thumb/v7e-m/nofp\libm.a(lib_a-s_round.o)
                              ./objects/rtc-board.o (round)
d:/program files/gnu arm embedded toolchain/9 2020-q2-update/bin/../lib/gcc/arm-none-eabi/9.3.1/../../../../arm-none-eabi/lib/thumb/v7e-m/nofp\libm.a(lib_a-w_pow.o)
                              ./objects/ads1115.o (pow)
d:/program files/gnu arm embedded toolchain/9 2020-q2-update/bin/../lib/gcc/arm-none-eabi/9.3.1/../../../../arm-none-eabi/lib/thumb/v7e-m/nofp\libm.a(lib_a-e_pow.o)
                              d:/program files/gnu arm embedded toolchain/9 2020-q2-update/bin/../lib/gcc/arm-none-eabi/9.3.1/../../../../arm-none-eabi/lib/thumb/v7e-m/nofp\libm.a(lib_a-w_pow.o) (__ieee754_pow)
d:/program files/gnu arm embedded toolchain/9 2020-q2-update/bin/../lib/gcc/arm-none-eabi/9.3.1/../../../../arm-none-eabi/lib/thumb/v7e-m/nofp\libm.a(lib_a-e_sqrt.o)
                              d:/program files/gnu arm embedded toolchain/9 2020-q2-update/bin/../lib/gcc/arm-none-eabi/9.3.1/../../../../arm-none-eabi/lib/thumb/v7e-m/nofp\libm.a(lib_a-e_pow.o) (__ieee754_sqrt)
d:/program files/gnu arm embedded toolchain/9 2020-q2-update/bin/../lib/gcc/arm-none-eabi/9.3.1/../../../../arm-none-eabi/lib/thumb/v7e-m/nofp\libm.a(lib_a-s_fabs.o)
                              d:/program files/gnu arm embedded toolchain/9 2020-q2-update/bin/../lib/gcc/arm-none-eabi/9.3.1/../../../../arm-none-eabi/lib/thumb/v7e-m/nofp\libm.a(lib_a-e_pow.o) (fabs)
d:/program files/gnu arm embedded toolchain/9 2020-q2-update/bin/../lib/gcc/arm-none-eabi/9.3.1/../../../../arm-none-eabi/lib/thumb/v7e-m/nofp\libm.a(lib_a-s_finite.o)
                              d:/program files/gnu arm embedded toolchain/9 2020-q2-update/bin/../lib/gcc/arm-none-eabi/9.3.1/../../../../arm-none-eabi/lib/thumb/v7e-m/nofp\libm.a(lib_a-w_pow.o) (finite)
d:/program files/gnu arm embedded toolchain/9 2020-q2-update/bin/../lib/gcc/arm-none-eabi/9.3.1/../../../../arm-none-eabi/lib/thumb/v7e-m/nofp\libm.a(lib_a-s_lib_ver.o)
                              d:/program files/gnu arm embedded toolchain/9 2020-q2-update/bin/../lib/gcc/arm-none-eabi/9.3.1/../../../../arm-none-eabi/lib/thumb/v7e-m/nofp\libm.a(lib_a-w_pow.o) (__fdlib_version)
d:/program files/gnu arm embedded toolchain/9 2020-q2-update/bin/../lib/gcc/arm-none-eabi/9.3.1/../../../../arm-none-eabi/lib/thumb/v7e-m/nofp\libm.a(lib_a-s_nan.o)
                              d:/program files/gnu arm embedded toolchain/9 2020-q2-update/bin/../lib/gcc/arm-none-eabi/9.3.1/../../../../arm-none-eabi/lib/thumb/v7e-m/nofp\libm.a(lib_a-e_pow.o) (nan)
d:/program files/gnu arm embedded toolchain/9 2020-q2-update/bin/../lib/gcc/arm-none-eabi/9.3.1/../../../../arm-none-eabi/lib/thumb/v7e-m/nofp\libm.a(lib_a-s_scalbn.o)
                              d:/program files/gnu arm embedded toolchain/9 2020-q2-update/bin/../lib/gcc/arm-none-eabi/9.3.1/../../../../arm-none-eabi/lib/thumb/v7e-m/nofp\libm.a(lib_a-e_pow.o) (scalbn)
d:/program files/gnu arm embedded toolchain/9 2020-q2-update/bin/../lib/gcc/arm-none-eabi/9.3.1/thumb/v7e-m/nofp\libgcc.a(_arm_muldf3.o)
                              ./objects/printf-stdarg.o (__aeabi_dmul)
d:/program files/gnu arm embedded toolchain/9 2020-q2-update/bin/../lib/gcc/arm-none-eabi/9.3.1/thumb/v7e-m/nofp\libgcc.a(_arm_addsubdf3.o)
                              ./objects/printf-stdarg.o (__aeabi_dsub)
d:/program files/gnu arm embedded toolchain/9 2020-q2-update/bin/../lib/gcc/arm-none-eabi/9.3.1/thumb/v7e-m/nofp\libgcc.a(_arm_muldivdf3.o)
                              ./objects/printf-stdarg.o (__aeabi_ddiv)
d:/program files/gnu arm embedded toolchain/9 2020-q2-update/bin/../lib/gcc/arm-none-eabi/9.3.1/thumb/v7e-m/nofp\libgcc.a(_arm_cmpdf2.o)
                              ./objects/printf-stdarg.o (__aeabi_dcmpeq)
d:/program files/gnu arm embedded toolchain/9 2020-q2-update/bin/../lib/gcc/arm-none-eabi/9.3.1/thumb/v7e-m/nofp\libgcc.a(_arm_unorddf2.o)
                              d:/program files/gnu arm embedded toolchain/9 2020-q2-update/bin/../lib/gcc/arm-none-eabi/9.3.1/../../../../arm-none-eabi/lib/thumb/v7e-m/nofp\libm.a(lib_a-w_pow.o) (__aeabi_dcmpun)
d:/program files/gnu arm embedded toolchain/9 2020-q2-update/bin/../lib/gcc/arm-none-eabi/9.3.1/thumb/v7e-m/nofp\libgcc.a(_arm_fixdfsi.o)
                              ./objects/printf-stdarg.o (__aeabi_d2iz)
d:/program files/gnu arm embedded toolchain/9 2020-q2-update/bin/../lib/gcc/arm-none-eabi/9.3.1/thumb/v7e-m/nofp\libgcc.a(_arm_fixunsdfsi.o)
                              ./objects/printf-stdarg.o (__aeabi_d2uiz)
d:/program files/gnu arm embedded toolchain/9 2020-q2-update/bin/../lib/gcc/arm-none-eabi/9.3.1/thumb/v7e-m/nofp\libgcc.a(_aeabi_uldivmod.o)
                              ./objects/printf-stdarg.o (__aeabi_uldivmod)
d:/program files/gnu arm embedded toolchain/9 2020-q2-update/bin/../lib/gcc/arm-none-eabi/9.3.1/thumb/v7e-m/nofp\libgcc.a(_fixunsdfdi.o)
                              ./objects/rtc-board.o (__aeabi_d2ulz)
d:/program files/gnu arm embedded toolchain/9 2020-q2-update/bin/../lib/gcc/arm-none-eabi/9.3.1/thumb/v7e-m/nofp\libgcc.a(_udivmoddi4.o)
                              d:/program files/gnu arm embedded toolchain/9 2020-q2-update/bin/../lib/gcc/arm-none-eabi/9.3.1/thumb/v7e-m/nofp\libgcc.a(_aeabi_uldivmod.o) (__udivmoddi4)
d:/program files/gnu arm embedded toolchain/9 2020-q2-update/bin/../lib/gcc/arm-none-eabi/9.3.1/thumb/v7e-m/nofp\libgcc.a(_dvmd_tls.o)
                              d:/program files/gnu arm embedded toolchain/9 2020-q2-update/bin/../lib/gcc/arm-none-eabi/9.3.1/thumb/v7e-m/nofp\libgcc.a(_aeabi_uldivmod.o) (__aeabi_ldiv0)
d:/program files/gnu arm embedded toolchain/9 2020-q2-update/bin/../lib/gcc/arm-none-eabi/9.3.1/../../../../arm-none-eabi/lib/thumb/v7e-m/nofp\libc.a(lib_a-errno.o)
                              d:/program files/gnu arm embedded toolchain/9 2020-q2-update/bin/../lib/gcc/arm-none-eabi/9.3.1/../../../../arm-none-eabi/lib/thumb/v7e-m/nofp\libm.a(lib_a-w_pow.o) (__errno)
d:/program files/gnu arm embedded toolchain/9 2020-q2-update/bin/../lib/gcc/arm-none-eabi/9.3.1/../../../../arm-none-eabi/lib/thumb/v7e-m/nofp\libc.a(lib_a-exit.o)
                              d:/program files/gnu arm embedded toolchain/9 2020-q2-update/bin/../lib/gcc/arm-none-eabi/9.3.1/../../../../arm-none-eabi/lib/thumb/v7e-m/nofp/crt0.o (exit)
d:/program files/gnu arm embedded toolchain/9 2020-q2-update/bin/../lib/gcc/arm-none-eabi/9.3.1/../../../../arm-none-eabi/lib/thumb/v7e-m/nofp\libc.a(lib_a-impure.o)
                              d:/program files/gnu arm embedded toolchain/9 2020-q2-update/bin/../lib/gcc/arm-none-eabi/9.3.1/../../../../arm-none-eabi/lib/thumb/v7e-m/nofp\libc.a(lib_a-exit.o) (_global_impure_ptr)
d:/program files/gnu arm embedded toolchain/9 2020-q2-update/bin/../lib/gcc/arm-none-eabi/9.3.1/../../../../arm-none-eabi/lib/thumb/v7e-m/nofp\libc.a(lib_a-init.o)
                              d:/program files/gnu arm embedded toolchain/9 2020-q2-update/bin/../lib/gcc/arm-none-eabi/9.3.1/../../../../arm-none-eabi/lib/thumb/v7e-m/nofp/crt0.o (__libc_init_array)
d:/program files/gnu arm embedded toolchain/9 2020-q2-update/bin/../lib/gcc/arm-none-eabi/9.3.1/../../../../arm-none-eabi/lib/thumb/v7e-m/nofp\libc.a(lib_a-memcpy.o)
                              ../../../drivers/crypto/lib/libcrypto.a(aes.o) (memcpy)
d:/program files/gnu arm embedded toolchain/9 2020-q2-update/bin/../lib/gcc/arm-none-eabi/9.3.1/../../../../arm-none-eabi/lib/thumb/v7e-m/nofp\libc.a(lib_a-memset.o)
                              d:/program files/gnu arm embedded toolchain/9 2020-q2-update/bin/../lib/gcc/arm-none-eabi/9.3.1/../../../../arm-none-eabi/lib/thumb/v7e-m/nofp/crt0.o (memset)
d:/program files/gnu arm embedded toolchain/9 2020-q2-update/bin/../lib/gcc/arm-none-eabi/9.3.1/../../../../arm-none-eabi/lib/thumb/v7e-m/nofp\libc.a(lib_a-strlen.o)
                              ./objects/strtohex.o (strlen)
d:/program files/gnu arm embedded toolchain/9 2020-q2-update/bin/../lib/gcc/arm-none-eabi/9.3.1/../../../../arm-none-eabi/lib/thumb/v7e-m/nofp\libc.a(lib_a-vsnprintf.o)
                              ./objects/gwlog.o (vsnprintf)
d:/program files/gnu arm embedded toolchain/9 2020-q2-update/bin/../lib/gcc/arm-none-eabi/9.3.1/../../../../arm-none-eabi/lib/thumb/v7e-m/nofp\libc.a(lib_a-__call_atexit.o)
                              d:/program files/gnu arm embedded toolchain/9 2020-q2-update/bin/../lib/gcc/arm-none-eabi/9.3.1/../../../../arm-none-eabi/lib/thumb/v7e-m/nofp\libc.a(lib_a-exit.o) (__call_exitprocs)
d:/program files/gnu arm embedded toolchain/9 2020-q2-update/bin/../lib/gcc/arm-none-eabi/9.3.1/../../../../arm-none-eabi/lib/thumb/v7e-m/nofp\libc.a(lib_a-atexit.o)
                              d:/program files/gnu arm embedded toolchain/9 2020-q2-update/bin/../lib/gcc/arm-none-eabi/9.3.1/../../../../arm-none-eabi/lib/thumb/v7e-m/nofp\libc.a(lib_a-__call_atexit.o) (atexit)
d:/program files/gnu arm embedded toolchain/9 2020-q2-update/bin/../lib/gcc/arm-none-eabi/9.3.1/../../../../arm-none-eabi/lib/thumb/v7e-m/nofp\libc.a(lib_a-fini.o)
                              d:/program files/gnu arm embedded toolchain/9 2020-q2-update/bin/../lib/gcc/arm-none-eabi/9.3.1/../../../../arm-none-eabi/lib/thumb/v7e-m/nofp\libc.a(lib_a-__call_atexit.o) (__libc_fini_array)
d:/program files/gnu arm embedded toolchain/9 2020-q2-update/bin/../lib/gcc/arm-none-eabi/9.3.1/../../../../arm-none-eabi/lib/thumb/v7e-m/nofp\libc.a(lib_a-lock.o)
                              d:/program files/gnu arm embedded toolchain/9 2020-q2-update/bin/../lib/gcc/arm-none-eabi/9.3.1/../../../../arm-none-eabi/lib/thumb/v7e-m/nofp\libc.a(lib_a-__call_atexit.o) (__retarget_lock_acquire_recursive)
d:/program files/gnu arm embedded toolchain/9 2020-q2-update/bin/../lib/gcc/arm-none-eabi/9.3.1/../../../../arm-none-eabi/lib/thumb/v7e-m/nofp\libc.a(lib_a-svfprintf.o)
                              d:/program files/gnu arm embedded toolchain/9 2020-q2-update/bin/../lib/gcc/arm-none-eabi/9.3.1/../../../../arm-none-eabi/lib/thumb/v7e-m/nofp\libc.a(lib_a-vsnprintf.o) (_svfprintf_r)
d:/program files/gnu arm embedded toolchain/9 2020-q2-update/bin/../lib/gcc/arm-none-eabi/9.3.1/../../../../arm-none-eabi/lib/thumb/v7e-m/nofp\libc.a(lib_a-__atexit.o)
                              d:/program files/gnu arm embedded toolchain/9 2020-q2-update/bin/../lib/gcc/arm-none-eabi/9.3.1/../../../../arm-none-eabi/lib/thumb/v7e-m/nofp\libc.a(lib_a-atexit.o) (__register_exitproc)
d:/program files/gnu arm embedded toolchain/9 2020-q2-update/bin/../lib/gcc/arm-none-eabi/9.3.1/../../../../arm-none-eabi/lib/thumb/v7e-m/nofp\libc.a(lib_a-dtoa.o)
                              d:/program files/gnu arm embedded toolchain/9 2020-q2-update/bin/../lib/gcc/arm-none-eabi/9.3.1/../../../../arm-none-eabi/lib/thumb/v7e-m/nofp\libc.a(lib_a-svfprintf.o) (_dtoa_r)
d:/program files/gnu arm embedded toolchain/9 2020-q2-update/bin/../lib/gcc/arm-none-eabi/9.3.1/../../../../arm-none-eabi/lib/thumb/v7e-m/nofp\libc.a(lib_a-freer.o)
                              d:/program files/gnu arm embedded toolchain/9 2020-q2-update/bin/../lib/gcc/arm-none-eabi/9.3.1/../../../../arm-none-eabi/lib/thumb/v7e-m/nofp\libc.a(lib_a-svfprintf.o) (_free_r)
d:/program files/gnu arm embedded toolchain/9 2020-q2-update/bin/../lib/gcc/arm-none-eabi/9.3.1/../../../../arm-none-eabi/lib/thumb/v7e-m/nofp\libc.a(lib_a-localeconv.o)
                              d:/program files/gnu arm embedded toolchain/9 2020-q2-update/bin/../lib/gcc/arm-none-eabi/9.3.1/../../../../arm-none-eabi/lib/thumb/v7e-m/nofp\libc.a(lib_a-svfprintf.o) (_localeconv_r)
d:/program files/gnu arm embedded toolchain/9 2020-q2-update/bin/../lib/gcc/arm-none-eabi/9.3.1/../../../../arm-none-eabi/lib/thumb/v7e-m/nofp\libc.a(lib_a-mallocr.o)
                              d:/program files/gnu arm embedded toolchain/9 2020-q2-update/bin/../lib/gcc/arm-none-eabi/9.3.1/../../../../arm-none-eabi/lib/thumb/v7e-m/nofp\libc.a(lib_a-svfprintf.o) (_malloc_r)
d:/program files/gnu arm embedded toolchain/9 2020-q2-update/bin/../lib/gcc/arm-none-eabi/9.3.1/../../../../arm-none-eabi/lib/thumb/v7e-m/nofp\libc.a(lib_a-memchr.o)
                              d:/program files/gnu arm embedded toolchain/9 2020-q2-update/bin/../lib/gcc/arm-none-eabi/9.3.1/../../../../arm-none-eabi/lib/thumb/v7e-m/nofp\libc.a(lib_a-svfprintf.o) (memchr)
d:/program files/gnu arm embedded toolchain/9 2020-q2-update/bin/../lib/gcc/arm-none-eabi/9.3.1/../../../../arm-none-eabi/lib/thumb/v7e-m/nofp\libc.a(lib_a-mlock.o)
                              d:/program files/gnu arm embedded toolchain/9 2020-q2-update/bin/../lib/gcc/arm-none-eabi/9.3.1/../../../../arm-none-eabi/lib/thumb/v7e-m/nofp\libc.a(lib_a-freer.o) (__malloc_lock)
d:/program files/gnu arm embedded toolchain/9 2020-q2-update/bin/../lib/gcc/arm-none-eabi/9.3.1/../../../../arm-none-eabi/lib/thumb/v7e-m/nofp\libc.a(lib_a-mprec.o)
                              d:/program files/gnu arm embedded toolchain/9 2020-q2-update/bin/../lib/gcc/arm-none-eabi/9.3.1/../../../../arm-none-eabi/lib/thumb/v7e-m/nofp\libc.a(lib_a-dtoa.o) (_Balloc)
d:/program files/gnu arm embedded toolchain/9 2020-q2-update/bin/../lib/gcc/arm-none-eabi/9.3.1/../../../../arm-none-eabi/lib/thumb/v7e-m/nofp\libc.a(lib_a-s_frexp.o)
                              d:/program files/gnu arm embedded toolchain/9 2020-q2-update/bin/../lib/gcc/arm-none-eabi/9.3.1/../../../../arm-none-eabi/lib/thumb/v7e-m/nofp\libc.a(lib_a-svfprintf.o) (frexp)
d:/program files/gnu arm embedded toolchain/9 2020-q2-update/bin/../lib/gcc/arm-none-eabi/9.3.1/../../../../arm-none-eabi/lib/thumb/v7e-m/nofp\libc.a(lib_a-sbrkr.o)
                              d:/program files/gnu arm embedded toolchain/9 2020-q2-update/bin/../lib/gcc/arm-none-eabi/9.3.1/../../../../arm-none-eabi/lib/thumb/v7e-m/nofp\libc.a(lib_a-freer.o) (_sbrk_r)
d:/program files/gnu arm embedded toolchain/9 2020-q2-update/bin/../lib/gcc/arm-none-eabi/9.3.1/../../../../arm-none-eabi/lib/thumb/v7e-m/nofp\libc.a(lib_a-strncpy.o)
                              d:/program files/gnu arm embedded toolchain/9 2020-q2-update/bin/../lib/gcc/arm-none-eabi/9.3.1/../../../../arm-none-eabi/lib/thumb/v7e-m/nofp\libc.a(lib_a-svfprintf.o) (strncpy)
d:/program files/gnu arm embedded toolchain/9 2020-q2-update/bin/../lib/gcc/arm-none-eabi/9.3.1/../../../../arm-none-eabi/lib/thumb/v7e-m/nofp\libc.a(lib_a-svfiprintf.o)
                              d:/program files/gnu arm embedded toolchain/9 2020-q2-update/bin/../lib/gcc/arm-none-eabi/9.3.1/../../../../arm-none-eabi/lib/thumb/v7e-m/nofp\libc.a(lib_a-svfprintf.o) (__ssprint_r)
d:/program files/gnu arm embedded toolchain/9 2020-q2-update/bin/../lib/gcc/arm-none-eabi/9.3.1/../../../../arm-none-eabi/lib/thumb/v7e-m/nofp\libc.a(lib_a-assert.o)
                              d:/program files/gnu arm embedded toolchain/9 2020-q2-update/bin/../lib/gcc/arm-none-eabi/9.3.1/../../../../arm-none-eabi/lib/thumb/v7e-m/nofp\libc.a(lib_a-dtoa.o) (__assert_func)
d:/program files/gnu arm embedded toolchain/9 2020-q2-update/bin/../lib/gcc/arm-none-eabi/9.3.1/../../../../arm-none-eabi/lib/thumb/v7e-m/nofp\libc.a(lib_a-callocr.o)
                              d:/program files/gnu arm embedded toolchain/9 2020-q2-update/bin/../lib/gcc/arm-none-eabi/9.3.1/../../../../arm-none-eabi/lib/thumb/v7e-m/nofp\libc.a(lib_a-mprec.o) (_calloc_r)
d:/program files/gnu arm embedded toolchain/9 2020-q2-update/bin/../lib/gcc/arm-none-eabi/9.3.1/../../../../arm-none-eabi/lib/thumb/v7e-m/nofp\libc.a(lib_a-fiprintf.o)
                              d:/program files/gnu arm embedded toolchain/9 2020-q2-update/bin/../lib/gcc/arm-none-eabi/9.3.1/../../../../arm-none-eabi/lib/thumb/v7e-m/nofp\libc.a(lib_a-assert.o) (fiprintf)
d:/program files/gnu arm embedded toolchain/9 2020-q2-update/bin/../lib/gcc/arm-none-eabi/9.3.1/../../../../arm-none-eabi/lib/thumb/v7e-m/nofp\libc.a(lib_a-locale.o)
                              d:/program files/gnu arm embedded toolchain/9 2020-q2-update/bin/../lib/gcc/arm-none-eabi/9.3.1/../../../../arm-none-eabi/lib/thumb/v7e-m/nofp\libc.a(lib_a-localeconv.o) (__global_locale)
d:/program files/gnu arm embedded toolchain/9 2020-q2-update/bin/../lib/gcc/arm-none-eabi/9.3.1/../../../../arm-none-eabi/lib/thumb/v7e-m/nofp\libc.a(lib_a-mbtowc_r.o)
                              d:/program files/gnu arm embedded toolchain/9 2020-q2-update/bin/../lib/gcc/arm-none-eabi/9.3.1/../../../../arm-none-eabi/lib/thumb/v7e-m/nofp\libc.a(lib_a-locale.o) (__ascii_mbtowc)
d:/program files/gnu arm embedded toolchain/9 2020-q2-update/bin/../lib/gcc/arm-none-eabi/9.3.1/../../../../arm-none-eabi/lib/thumb/v7e-m/nofp\libc.a(lib_a-memmove.o)
                              d:/program files/gnu arm embedded toolchain/9 2020-q2-update/bin/../lib/gcc/arm-none-eabi/9.3.1/../../../../arm-none-eabi/lib/thumb/v7e-m/nofp\libc.a(lib_a-svfiprintf.o) (memmove)
d:/program files/gnu arm embedded toolchain/9 2020-q2-update/bin/../lib/gcc/arm-none-eabi/9.3.1/../../../../arm-none-eabi/lib/thumb/v7e-m/nofp\libc.a(lib_a-reallocr.o)
                              d:/program files/gnu arm embedded toolchain/9 2020-q2-update/bin/../lib/gcc/arm-none-eabi/9.3.1/../../../../arm-none-eabi/lib/thumb/v7e-m/nofp\libc.a(lib_a-svfiprintf.o) (_realloc_r)
d:/program files/gnu arm embedded toolchain/9 2020-q2-update/bin/../lib/gcc/arm-none-eabi/9.3.1/../../../../arm-none-eabi/lib/thumb/v7e-m/nofp\libc.a(lib_a-reent.o)
                              d:/program files/gnu arm embedded toolchain/9 2020-q2-update/bin/../lib/gcc/arm-none-eabi/9.3.1/../../../../arm-none-eabi/lib/thumb/v7e-m/nofp\libc.a(lib_a-sbrkr.o) (errno)
d:/program files/gnu arm embedded toolchain/9 2020-q2-update/bin/../lib/gcc/arm-none-eabi/9.3.1/../../../../arm-none-eabi/lib/thumb/v7e-m/nofp\libc.a(lib_a-strcmp.o)
                              d:/program files/gnu arm embedded toolchain/9 2020-q2-update/bin/../lib/gcc/arm-none-eabi/9.3.1/../../../../arm-none-eabi/lib/thumb/v7e-m/nofp\libc.a(lib_a-locale.o) (strcmp)
d:/program files/gnu arm embedded toolchain/9 2020-q2-update/bin/../lib/gcc/arm-none-eabi/9.3.1/../../../../arm-none-eabi/lib/thumb/v7e-m/nofp\libc.a(lib_a-vfiprintf.o)
                              d:/program files/gnu arm embedded toolchain/9 2020-q2-update/bin/../lib/gcc/arm-none-eabi/9.3.1/../../../../arm-none-eabi/lib/thumb/v7e-m/nofp\libc.a(lib_a-fiprintf.o) (_vfiprintf_r)
d:/program files/gnu arm embedded toolchain/9 2020-q2-update/bin/../lib/gcc/arm-none-eabi/9.3.1/../../../../arm-none-eabi/lib/thumb/v7e-m/nofp\libc.a(lib_a-wctomb_r.o)
                              d:/program files/gnu arm embedded toolchain/9 2020-q2-update/bin/../lib/gcc/arm-none-eabi/9.3.1/../../../../arm-none-eabi/lib/thumb/v7e-m/nofp\libc.a(lib_a-locale.o) (__ascii_wctomb)
d:/program files/gnu arm embedded toolchain/9 2020-q2-update/bin/../lib/gcc/arm-none-eabi/9.3.1/../../../../arm-none-eabi/lib/thumb/v7e-m/nofp\libc.a(lib_a-wsetup.o)
                              d:/program files/gnu arm embedded toolchain/9 2020-q2-update/bin/../lib/gcc/arm-none-eabi/9.3.1/../../../../arm-none-eabi/lib/thumb/v7e-m/nofp\libc.a(lib_a-vfiprintf.o) (__swsetup_r)
d:/program files/gnu arm embedded toolchain/9 2020-q2-update/bin/../lib/gcc/arm-none-eabi/9.3.1/../../../../arm-none-eabi/lib/thumb/v7e-m/nofp\libc.a(lib_a-abort.o)
                              d:/program files/gnu arm embedded toolchain/9 2020-q2-update/bin/../lib/gcc/arm-none-eabi/9.3.1/../../../../arm-none-eabi/lib/thumb/v7e-m/nofp\libc.a(lib_a-assert.o) (abort)
d:/program files/gnu arm embedded toolchain/9 2020-q2-update/bin/../lib/gcc/arm-none-eabi/9.3.1/../../../../arm-none-eabi/lib/thumb/v7e-m/nofp\libc.a(lib_a-ctype_.o)
                              d:/program files/gnu arm embedded toolchain/9 2020-q2-update/bin/../lib/gcc/arm-none-eabi/9.3.1/../../../../arm-none-eabi/lib/thumb/v7e-m/nofp\libc.a(lib_a-locale.o) (_ctype_)
d:/program files/gnu arm embedded toolchain/9 2020-q2-update/bin/../lib/gcc/arm-none-eabi/9.3.1/../../../../arm-none-eabi/lib/thumb/v7e-m/nofp\libc.a(lib_a-fflush.o)
                              d:/program files/gnu arm embedded toolchain/9 2020-q2-update/bin/../lib/gcc/arm-none-eabi/9.3.1/../../../../arm-none-eabi/lib/thumb/v7e-m/nofp\libc.a(lib_a-vfiprintf.o) (_fflush_r)
d:/program files/gnu arm embedded toolchain/9 2020-q2-update/bin/../lib/gcc/arm-none-eabi/9.3.1/../../../../arm-none-eabi/lib/thumb/v7e-m/nofp\libc.a(lib_a-findfp.o)
                              d:/program files/gnu arm embedded toolchain/9 2020-q2-update/bin/../lib/gcc/arm-none-eabi/9.3.1/../../../../arm-none-eabi/lib/thumb/v7e-m/nofp\libc.a(lib_a-vfiprintf.o) (__sinit)
d:/program files/gnu arm embedded toolchain/9 2020-q2-update/bin/../lib/gcc/arm-none-eabi/9.3.1/../../../../arm-none-eabi/lib/thumb/v7e-m/nofp\libc.a(lib_a-fputwc.o)
                              d:/program files/gnu arm embedded toolchain/9 2020-q2-update/bin/../lib/gcc/arm-none-eabi/9.3.1/../../../../arm-none-eabi/lib/thumb/v7e-m/nofp\libc.a(lib_a-vfiprintf.o) (_fputwc_r)
d:/program files/gnu arm embedded toolchain/9 2020-q2-update/bin/../lib/gcc/arm-none-eabi/9.3.1/../../../../arm-none-eabi/lib/thumb/v7e-m/nofp\libc.a(lib_a-fvwrite.o)
                              d:/program files/gnu arm embedded toolchain/9 2020-q2-update/bin/../lib/gcc/arm-none-eabi/9.3.1/../../../../arm-none-eabi/lib/thumb/v7e-m/nofp\libc.a(lib_a-vfiprintf.o) (__sfvwrite_r)
d:/program files/gnu arm embedded toolchain/9 2020-q2-update/bin/../lib/gcc/arm-none-eabi/9.3.1/../../../../arm-none-eabi/lib/thumb/v7e-m/nofp\libc.a(lib_a-fwalk.o)
                              d:/program files/gnu arm embedded toolchain/9 2020-q2-update/bin/../lib/gcc/arm-none-eabi/9.3.1/../../../../arm-none-eabi/lib/thumb/v7e-m/nofp\libc.a(lib_a-findfp.o) (_fwalk)
d:/program files/gnu arm embedded toolchain/9 2020-q2-update/bin/../lib/gcc/arm-none-eabi/9.3.1/../../../../arm-none-eabi/lib/thumb/v7e-m/nofp\libc.a(lib_a-makebuf.o)
                              d:/program files/gnu arm embedded toolchain/9 2020-q2-update/bin/../lib/gcc/arm-none-eabi/9.3.1/../../../../arm-none-eabi/lib/thumb/v7e-m/nofp\libc.a(lib_a-wsetup.o) (__smakebuf_r)
d:/program files/gnu arm embedded toolchain/9 2020-q2-update/bin/../lib/gcc/arm-none-eabi/9.3.1/../../../../arm-none-eabi/lib/thumb/v7e-m/nofp\libc.a(lib_a-signal.o)
                              d:/program files/gnu arm embedded toolchain/9 2020-q2-update/bin/../lib/gcc/arm-none-eabi/9.3.1/../../../../arm-none-eabi/lib/thumb/v7e-m/nofp\libc.a(lib_a-abort.o) (raise)
d:/program files/gnu arm embedded toolchain/9 2020-q2-update/bin/../lib/gcc/arm-none-eabi/9.3.1/../../../../arm-none-eabi/lib/thumb/v7e-m/nofp\libc.a(lib_a-signalr.o)
                              d:/program files/gnu arm embedded toolchain/9 2020-q2-update/bin/../lib/gcc/arm-none-eabi/9.3.1/../../../../arm-none-eabi/lib/thumb/v7e-m/nofp\libc.a(lib_a-signal.o) (_kill_r)
d:/program files/gnu arm embedded toolchain/9 2020-q2-update/bin/../lib/gcc/arm-none-eabi/9.3.1/../../../../arm-none-eabi/lib/thumb/v7e-m/nofp\libc.a(lib_a-stdio.o)
                              d:/program files/gnu arm embedded toolchain/9 2020-q2-update/bin/../lib/gcc/arm-none-eabi/9.3.1/../../../../arm-none-eabi/lib/thumb/v7e-m/nofp\libc.a(lib_a-findfp.o) (__sread)
d:/program files/gnu arm embedded toolchain/9 2020-q2-update/bin/../lib/gcc/arm-none-eabi/9.3.1/../../../../arm-none-eabi/lib/thumb/v7e-m/nofp\libc.a(lib_a-wbuf.o)
                              d:/program files/gnu arm embedded toolchain/9 2020-q2-update/bin/../lib/gcc/arm-none-eabi/9.3.1/../../../../arm-none-eabi/lib/thumb/v7e-m/nofp\libc.a(lib_a-fputwc.o) (__swbuf_r)
d:/program files/gnu arm embedded toolchain/9 2020-q2-update/bin/../lib/gcc/arm-none-eabi/9.3.1/../../../../arm-none-eabi/lib/thumb/v7e-m/nofp\libc.a(lib_a-wcrtomb.o)
                              d:/program files/gnu arm embedded toolchain/9 2020-q2-update/bin/../lib/gcc/arm-none-eabi/9.3.1/../../../../arm-none-eabi/lib/thumb/v7e-m/nofp\libc.a(lib_a-fputwc.o) (_wcrtomb_r)
d:/program files/gnu arm embedded toolchain/9 2020-q2-update/bin/../lib/gcc/arm-none-eabi/9.3.1/../../../../arm-none-eabi/lib/thumb/v7e-m/nofp\libc.a(lib_a-writer.o)
                              d:/program files/gnu arm embedded toolchain/9 2020-q2-update/bin/../lib/gcc/arm-none-eabi/9.3.1/../../../../arm-none-eabi/lib/thumb/v7e-m/nofp\libc.a(lib_a-stdio.o) (_write_r)
d:/program files/gnu arm embedded toolchain/9 2020-q2-update/bin/../lib/gcc/arm-none-eabi/9.3.1/../../../../arm-none-eabi/lib/thumb/v7e-m/nofp\libc.a(lib_a-closer.o)
                              d:/program files/gnu arm embedded toolchain/9 2020-q2-update/bin/../lib/gcc/arm-none-eabi/9.3.1/../../../../arm-none-eabi/lib/thumb/v7e-m/nofp\libc.a(lib_a-stdio.o) (_close_r)
d:/program files/gnu arm embedded toolchain/9 2020-q2-update/bin/../lib/gcc/arm-none-eabi/9.3.1/../../../../arm-none-eabi/lib/thumb/v7e-m/nofp\libc.a(lib_a-fclose.o)
                              d:/program files/gnu arm embedded toolchain/9 2020-q2-update/bin/../lib/gcc/arm-none-eabi/9.3.1/../../../../arm-none-eabi/lib/thumb/v7e-m/nofp\libc.a(lib_a-findfp.o) (_fclose_r)
d:/program files/gnu arm embedded toolchain/9 2020-q2-update/bin/../lib/gcc/arm-none-eabi/9.3.1/../../../../arm-none-eabi/lib/thumb/v7e-m/nofp\libc.a(lib_a-fstatr.o)
                              d:/program files/gnu arm embedded toolchain/9 2020-q2-update/bin/../lib/gcc/arm-none-eabi/9.3.1/../../../../arm-none-eabi/lib/thumb/v7e-m/nofp\libc.a(lib_a-makebuf.o) (_fstat_r)
d:/program files/gnu arm embedded toolchain/9 2020-q2-update/bin/../lib/gcc/arm-none-eabi/9.3.1/../../../../arm-none-eabi/lib/thumb/v7e-m/nofp\libc.a(lib_a-isattyr.o)
                              d:/program files/gnu arm embedded toolchain/9 2020-q2-update/bin/../lib/gcc/arm-none-eabi/9.3.1/../../../../arm-none-eabi/lib/thumb/v7e-m/nofp\libc.a(lib_a-makebuf.o) (_isatty_r)
d:/program files/gnu arm embedded toolchain/9 2020-q2-update/bin/../lib/gcc/arm-none-eabi/9.3.1/../../../../arm-none-eabi/lib/thumb/v7e-m/nofp\libc.a(lib_a-lseekr.o)
                              d:/program files/gnu arm embedded toolchain/9 2020-q2-update/bin/../lib/gcc/arm-none-eabi/9.3.1/../../../../arm-none-eabi/lib/thumb/v7e-m/nofp\libc.a(lib_a-stdio.o) (_lseek_r)
d:/program files/gnu arm embedded toolchain/9 2020-q2-update/bin/../lib/gcc/arm-none-eabi/9.3.1/../../../../arm-none-eabi/lib/thumb/v7e-m/nofp\libc.a(lib_a-readr.o)
                              d:/program files/gnu arm embedded toolchain/9 2020-q2-update/bin/../lib/gcc/arm-none-eabi/9.3.1/../../../../arm-none-eabi/lib/thumb/v7e-m/nofp\libc.a(lib_a-stdio.o) (_read_r)
d:/program files/gnu arm embedded toolchain/9 2020-q2-update/bin/../lib/gcc/arm-none-eabi/9.3.1/../../../../arm-none-eabi/lib/thumb/v7e-m/nofp\libnosys.a(close.o)
                              d:/program files/gnu arm embedded toolchain/9 2020-q2-update/bin/../lib/gcc/arm-none-eabi/9.3.1/../../../../arm-none-eabi/lib/thumb/v7e-m/nofp\libc.a(lib_a-closer.o) (_close)
d:/program files/gnu arm embedded toolchain/9 2020-q2-update/bin/../lib/gcc/arm-none-eabi/9.3.1/../../../../arm-none-eabi/lib/thumb/v7e-m/nofp\libnosys.a(fstat.o)
                              d:/program files/gnu arm embedded toolchain/9 2020-q2-update/bin/../lib/gcc/arm-none-eabi/9.3.1/../../../../arm-none-eabi/lib/thumb/v7e-m/nofp\libc.a(lib_a-fstatr.o) (_fstat)
d:/program files/gnu arm embedded toolchain/9 2020-q2-update/bin/../lib/gcc/arm-none-eabi/9.3.1/../../../../arm-none-eabi/lib/thumb/v7e-m/nofp\libnosys.a(getpid.o)
                              d:/program files/gnu arm embedded toolchain/9 2020-q2-update/bin/../lib/gcc/arm-none-eabi/9.3.1/../../../../arm-none-eabi/lib/thumb/v7e-m/nofp\libc.a(lib_a-signalr.o) (_getpid)
d:/program files/gnu arm embedded toolchain/9 2020-q2-update/bin/../lib/gcc/arm-none-eabi/9.3.1/../../../../arm-none-eabi/lib/thumb/v7e-m/nofp\libnosys.a(isatty.o)
                              d:/program files/gnu arm embedded toolchain/9 2020-q2-update/bin/../lib/gcc/arm-none-eabi/9.3.1/../../../../arm-none-eabi/lib/thumb/v7e-m/nofp\libc.a(lib_a-isattyr.o) (_isatty)
d:/program files/gnu arm embedded toolchain/9 2020-q2-update/bin/../lib/gcc/arm-none-eabi/9.3.1/../../../../arm-none-eabi/lib/thumb/v7e-m/nofp\libnosys.a(kill.o)
                              d:/program files/gnu arm embedded toolchain/9 2020-q2-update/bin/../lib/gcc/arm-none-eabi/9.3.1/../../../../arm-none-eabi/lib/thumb/v7e-m/nofp\libc.a(lib_a-signalr.o) (_kill)
d:/program files/gnu arm embedded toolchain/9 2020-q2-update/bin/../lib/gcc/arm-none-eabi/9.3.1/../../../../arm-none-eabi/lib/thumb/v7e-m/nofp\libnosys.a(lseek.o)
                              d:/program files/gnu arm embedded toolchain/9 2020-q2-update/bin/../lib/gcc/arm-none-eabi/9.3.1/../../../../arm-none-eabi/lib/thumb/v7e-m/nofp\libc.a(lib_a-lseekr.o) (_lseek)
d:/program files/gnu arm embedded toolchain/9 2020-q2-update/bin/../lib/gcc/arm-none-eabi/9.3.1/../../../../arm-none-eabi/lib/thumb/v7e-m/nofp\libnosys.a(read.o)
                              d:/program files/gnu arm embedded toolchain/9 2020-q2-update/bin/../lib/gcc/arm-none-eabi/9.3.1/../../../../arm-none-eabi/lib/thumb/v7e-m/nofp\libc.a(lib_a-readr.o) (_read)
d:/program files/gnu arm embedded toolchain/9 2020-q2-update/bin/../lib/gcc/arm-none-eabi/9.3.1/../../../../arm-none-eabi/lib/thumb/v7e-m/nofp\libnosys.a(sbrk.o)
                              d:/program files/gnu arm embedded toolchain/9 2020-q2-update/bin/../lib/gcc/arm-none-eabi/9.3.1/../../../../arm-none-eabi/lib/thumb/v7e-m/nofp\libc.a(lib_a-sbrkr.o) (_sbrk)
d:/program files/gnu arm embedded toolchain/9 2020-q2-update/bin/../lib/gcc/arm-none-eabi/9.3.1/../../../../arm-none-eabi/lib/thumb/v7e-m/nofp\libnosys.a(write.o)
                              d:/program files/gnu arm embedded toolchain/9 2020-q2-update/bin/../lib/gcc/arm-none-eabi/9.3.1/../../../../arm-none-eabi/lib/thumb/v7e-m/nofp\libc.a(lib_a-writer.o) (_write)
d:/program files/gnu arm embedded toolchain/9 2020-q2-update/bin/../lib/gcc/arm-none-eabi/9.3.1/../../../../arm-none-eabi/lib/thumb/v7e-m/nofp\libnosys.a(_exit.o)
                              d:/program files/gnu arm embedded toolchain/9 2020-q2-update/bin/../lib/gcc/arm-none-eabi/9.3.1/../../../../arm-none-eabi/lib/thumb/v7e-m/nofp\libc.a(lib_a-exit.o) (_exit)

Allocating common symbols
Common symbol       size              file

irqRegs             0x2               ./objects/radio.o
__lock___atexit_recursive_mutex
                    0x1               d:/program files/gnu arm embedded toolchain/9 2020-q2-update/bin/../lib/gcc/arm-none-eabi/9.3.1/../../../../arm-none-eabi/lib/thumb/v7e-m/nofp\libc.a(lib_a-lock.o)
__lock___arc4random_mutex
                    0x1               d:/program files/gnu arm embedded toolchain/9 2020-q2-update/bin/../lib/gcc/arm-none-eabi/9.3.1/../../../../arm-none-eabi/lib/thumb/v7e-m/nofp\libc.a(lib_a-lock.o)
errno               0x4               d:/program files/gnu arm embedded toolchain/9 2020-q2-update/bin/../lib/gcc/arm-none-eabi/9.3.1/../../../../arm-none-eabi/lib/thumb/v7e-m/nofp\libc.a(lib_a-reent.o)
__lock___env_recursive_mutex
                    0x1               d:/program files/gnu arm embedded toolchain/9 2020-q2-update/bin/../lib/gcc/arm-none-eabi/9.3.1/../../../../arm-none-eabi/lib/thumb/v7e-m/nofp\libc.a(lib_a-lock.o)
SX126x              0x3c              ./objects/radio.o
__lock___sinit_recursive_mutex
                    0x1               d:/program files/gnu arm embedded toolchain/9 2020-q2-update/bin/../lib/gcc/arm-none-eabi/9.3.1/../../../../arm-none-eabi/lib/thumb/v7e-m/nofp\libc.a(lib_a-lock.o)
RtcCalendarContext  0xc               ./objects/rtc-board.o
CommonStatus        0x1               ./objects/loramacconfirmqueue.o
__lock___malloc_recursive_mutex
                    0x1               d:/program files/gnu arm embedded toolchain/9 2020-q2-update/bin/../lib/gcc/arm-none-eabi/9.3.1/../../../../arm-none-eabi/lib/thumb/v7e-m/nofp\libc.a(lib_a-lock.o)
RtcTimerContext     0x8               ./objects/rtc-board.o
g_dma_callback_handler
                    0x20              ./objects/tremo_dma.o
BufferStart         0x4               ./objects/loramacconfirmqueue.o
LoRaMacFlags        0x1               ./objects/loramac.o
LoRaMacParamsDefaults
                    0x3c              ./objects/loramac.o
BufferEnd           0x4               ./objects/loramacconfirmqueue.o
TxTimeoutTimer      0x14              ./objects/radio.o
RadioRxPayload      0xff              ./objects/radio.o
CadTimeoutTimer     0x14              ./objects/radio.o
LoRaMacParams       0x3c              ./objects/loramac.o
__lock___at_quick_exit_mutex
                    0x1               d:/program files/gnu arm embedded toolchain/9 2020-q2-update/bin/../lib/gcc/arm-none-eabi/9.3.1/../../../../arm-none-eabi/lib/thumb/v7e-m/nofp\libc.a(lib_a-lock.o)
RadioPktStatus      0x14              ./objects/radio.o
__lock___dd_hash_mutex
                    0x1               d:/program files/gnu arm embedded toolchain/9 2020-q2-update/bin/../lib/gcc/arm-none-eabi/9.3.1/../../../../arm-none-eabi/lib/thumb/v7e-m/nofp\libc.a(lib_a-lock.o)
__lock___tz_mutex   0x1               d:/program files/gnu arm embedded toolchain/9 2020-q2-update/bin/../lib/gcc/arm-none-eabi/9.3.1/../../../../arm-none-eabi/lib/thumb/v7e-m/nofp\libc.a(lib_a-lock.o)
__lock___sfp_recursive_mutex
                    0x1               d:/program files/gnu arm embedded toolchain/9 2020-q2-update/bin/../lib/gcc/arm-none-eabi/9.3.1/../../../../arm-none-eabi/lib/thumb/v7e-m/nofp\libc.a(lib_a-lock.o)
RxTimeoutTimer      0x14              ./objects/radio.o

Discarded input sections

 .text          0x00000000        0x0 d:/program files/gnu arm embedded toolchain/9 2020-q2-update/bin/../lib/gcc/arm-none-eabi/9.3.1/thumb/v7e-m/nofp/crti.o
 .data          0x00000000        0x0 d:/program files/gnu arm embedded toolchain/9 2020-q2-update/bin/../lib/gcc/arm-none-eabi/9.3.1/thumb/v7e-m/nofp/crti.o
 .bss           0x00000000        0x0 d:/program files/gnu arm embedded toolchain/9 2020-q2-update/bin/../lib/gcc/arm-none-eabi/9.3.1/thumb/v7e-m/nofp/crti.o
 .data          0x00000000        0x4 d:/program files/gnu arm embedded toolchain/9 2020-q2-update/bin/../lib/gcc/arm-none-eabi/9.3.1/thumb/v7e-m/nofp/crtbegin.o
 .text          0x00000000       0x7c d:/program files/gnu arm embedded toolchain/9 2020-q2-update/bin/../lib/gcc/arm-none-eabi/9.3.1/../../../../arm-none-eabi/lib/thumb/v7e-m/nofp/crt0.o
 .data          0x00000000        0x0 d:/program files/gnu arm embedded toolchain/9 2020-q2-update/bin/../lib/gcc/arm-none-eabi/9.3.1/../../../../arm-none-eabi/lib/thumb/v7e-m/nofp/crt0.o
 .bss           0x00000000        0x0 d:/program files/gnu arm embedded toolchain/9 2020-q2-update/bin/../lib/gcc/arm-none-eabi/9.3.1/../../../../arm-none-eabi/lib/thumb/v7e-m/nofp/crt0.o
 .ARM.extab     0x00000000        0x0 d:/program files/gnu arm embedded toolchain/9 2020-q2-update/bin/../lib/gcc/arm-none-eabi/9.3.1/../../../../arm-none-eabi/lib/thumb/v7e-m/nofp/crt0.o
 .ARM.exidx     0x00000000       0x10 d:/program files/gnu arm embedded toolchain/9 2020-q2-update/bin/../lib/gcc/arm-none-eabi/9.3.1/../../../../arm-none-eabi/lib/thumb/v7e-m/nofp/crt0.o
 .ARM.attributes
                0x00000000       0x1c d:/program files/gnu arm embedded toolchain/9 2020-q2-update/bin/../lib/gcc/arm-none-eabi/9.3.1/../../../../arm-none-eabi/lib/thumb/v7e-m/nofp/crt0.o
 .text          0x00000000        0x0 ./objects/system_cm4.o
 .data          0x00000000        0x0 ./objects/system_cm4.o
 .bss           0x00000000        0x0 ./objects/system_cm4.o
 .text          0x00000000       0x14 ./objects/startup_cm4.o
 .data          0x00000000        0x0 ./objects/startup_cm4.o
 .bss           0x00000000        0x0 ./objects/startup_cm4.o
 .text          0x00000000        0x0 ./objects/printf-stdarg.o
 .data          0x00000000        0x0 ./objects/printf-stdarg.o
 .bss           0x00000000        0x0 ./objects/printf-stdarg.o
 .text.print_isdone
                0x00000000       0x2c ./objects/printf-stdarg.o
 .text.__wrap_snprintf
                0x00000000       0x28 ./objects/printf-stdarg.o
 .text          0x00000000        0x0 ./objects/tremo_adc.o
 .data          0x00000000        0x0 ./objects/tremo_adc.o
 .bss           0x00000000        0x0 ./objects/tremo_adc.o
 .text.read_write_adc_afec
                0x00000000       0x34 ./objects/tremo_adc.o
 .text.adc_init
                0x00000000       0x18 ./objects/tremo_adc.o
 .text.adc_start
                0x00000000       0x2c ./objects/tremo_adc.o
 .text.adc_enable
                0x00000000       0x28 ./objects/tremo_adc.o
 .text.adc_enable_dma
                0x00000000       0x18 ./objects/tremo_adc.o
 .text.adc_retain_data_when_overrun
                0x00000000       0x18 ./objects/tremo_adc.o
 .text.adc_enable_wait_mode
                0x00000000       0x18 ./objects/tremo_adc.o
 .text.adc_config_clock_division
                0x00000000       0x20 ./objects/tremo_adc.o
 .text.adc_config_trigger_source
                0x00000000       0x18 ./objects/tremo_adc.o
 .text.adc_config_trigger_polarity
                0x00000000       0x18 ./objects/tremo_adc.o
 .text.adc_config_conv_mode
                0x00000000       0x18 ./objects/tremo_adc.o
 .text.adc_config_sample_sequence
                0x00000000       0x2c ./objects/tremo_adc.o
 .text.adc_config_sample_chan_diff
                0x00000000       0x18 ./objects/tremo_adc.o
 .text.adc_get_interrupt_status
                0x00000000       0x14 ./objects/tremo_adc.o
 .text.adc_clear_interrupt_status
                0x00000000       0x18 ./objects/tremo_adc.o
 .text.adc_config_interrupt
                0x00000000       0x18 ./objects/tremo_adc.o
 .text.adc_get_data
                0x00000000       0x10 ./objects/tremo_adc.o
 .text.adc_get_calibration_value
                0x00000000       0x78 ./objects/tremo_adc.o
 .text.adc_enable_vbat31
                0x00000000       0x18 ./objects/tremo_adc.o
 .text.adc_config_ref_voltage
                0x00000000       0x20 ./objects/tremo_adc.o
 .debug_info    0x00000000      0x9aa ./objects/tremo_adc.o
 .debug_abbrev  0x00000000      0x242 ./objects/tremo_adc.o
 .debug_loc     0x00000000      0x3bf ./objects/tremo_adc.o
 .debug_aranges
                0x00000000       0xb8 ./objects/tremo_adc.o
 .debug_ranges  0x00000000       0xa8 ./objects/tremo_adc.o
 .debug_line    0x00000000      0x5da ./objects/tremo_adc.o
 .debug_str     0x00000000      0xc87 ./objects/tremo_adc.o
 .comment       0x00000000       0x4d ./objects/tremo_adc.o
 .debug_frame   0x00000000      0x178 ./objects/tremo_adc.o
 .ARM.attributes
                0x00000000       0x32 ./objects/tremo_adc.o
 .text          0x00000000        0x0 ./objects/tremo_bstimer.o
 .data          0x00000000        0x0 ./objects/tremo_bstimer.o
 .bss           0x00000000        0x0 ./objects/tremo_bstimer.o
 .text.bstimer_init
                0x00000000       0x28 ./objects/tremo_bstimer.o
 .text.bstimer_deinit
                0x00000000       0x4c ./objects/tremo_bstimer.o
 .text.bstimer_config_one_pulse
                0x00000000       0x12 ./objects/tremo_bstimer.o
 .text.bstimer_config_overflow_update
                0x00000000       0x12 ./objects/tremo_bstimer.o
 .text.bstimer_config_update_disable
                0x00000000       0x12 ./objects/tremo_bstimer.o
 .text.bstimer_cmd
                0x00000000       0x12 ./objects/tremo_bstimer.o
 .text.bstimer_config_dma
                0x00000000       0x12 ./objects/tremo_bstimer.o
 .text.bstimer_config_interrupt
                0x00000000       0x12 ./objects/tremo_bstimer.o
 .text.bstimer_get_status
                0x00000000        0xe ./objects/tremo_bstimer.o
 .text.bstimer_generate_event
                0x00000000       0x10 ./objects/tremo_bstimer.o
 .debug_info    0x00000000     0x1076 ./objects/tremo_bstimer.o
 .debug_abbrev  0x00000000      0x2a7 ./objects/tremo_bstimer.o
 .debug_loc     0x00000000      0x136 ./objects/tremo_bstimer.o
 .debug_aranges
                0x00000000       0x68 ./objects/tremo_bstimer.o
 .debug_ranges  0x00000000       0x58 ./objects/tremo_bstimer.o
 .debug_line    0x00000000      0x479 ./objects/tremo_bstimer.o
 .debug_str     0x00000000      0xc4f ./objects/tremo_bstimer.o
 .comment       0x00000000       0x4d ./objects/tremo_bstimer.o
 .debug_frame   0x00000000       0xc8 ./objects/tremo_bstimer.o
 .ARM.attributes
                0x00000000       0x32 ./objects/tremo_bstimer.o
 .text          0x00000000        0x0 ./objects/tremo_crc.o
 .data          0x00000000        0x0 ./objects/tremo_crc.o
 .bss           0x00000000        0x0 ./objects/tremo_crc.o
 .text.crc_deinit
                0x00000000       0x1e ./objects/tremo_crc.o
 .text.crc_init
                0x00000000       0x20 ./objects/tremo_crc.o
 .text.crc_calc32
                0x00000000       0x20 ./objects/tremo_crc.o
 .text.crc_calc16
                0x00000000       0x28 ./objects/tremo_crc.o
 .text.crc_calc8
                0x00000000       0x24 ./objects/tremo_crc.o
 .debug_info    0x00000000      0x504 ./objects/tremo_crc.o
 .debug_abbrev  0x00000000      0x1be ./objects/tremo_crc.o
 .debug_loc     0x00000000      0x1ae ./objects/tremo_crc.o
 .debug_aranges
                0x00000000       0x40 ./objects/tremo_crc.o
 .debug_ranges  0x00000000       0x78 ./objects/tremo_crc.o
 .debug_line    0x00000000      0x368 ./objects/tremo_crc.o
 .debug_str     0x00000000      0x751 ./objects/tremo_crc.o
 .comment       0x00000000       0x4d ./objects/tremo_crc.o
 .debug_frame   0x00000000       0x6c ./objects/tremo_crc.o
 .ARM.attributes
                0x00000000       0x32 ./objects/tremo_crc.o
 .text          0x00000000        0x0 ./objects/tremo_dac.o
 .data          0x00000000        0x0 ./objects/tremo_dac.o
 .bss           0x00000000        0x0 ./objects/tremo_dac.o
 .text.dac_deinit
                0x00000000       0x1e ./objects/tremo_dac.o
 .text.dac_init
                0x00000000       0x4c ./objects/tremo_dac.o
 .text.dac_cmd  0x00000000       0x64 ./objects/tremo_dac.o
 .text.dac_software_trigger_cmd
                0x00000000       0x18 ./objects/tremo_dac.o
 .text.dac_dma_cmd
                0x00000000       0x18 ./objects/tremo_dac.o
 .text.dac_write_data
                0x00000000        0xc ./objects/tremo_dac.o
 .text.dac_read_output_data
                0x00000000        0xc ./objects/tremo_dac.o
 .text.dac_config_interrupt
                0x00000000       0x20 ./objects/tremo_dac.o
 .text.dac_get_interrupt_status
                0x00000000       0x18 ./objects/tremo_dac.o
 .text.dac_clear_interrupt
                0x00000000       0x10 ./objects/tremo_dac.o
 .debug_info    0x00000000      0x608 ./objects/tremo_dac.o
 .debug_abbrev  0x00000000      0x1d8 ./objects/tremo_dac.o
 .debug_loc     0x00000000       0xfd ./objects/tremo_dac.o
 .debug_aranges
                0x00000000       0x68 ./objects/tremo_dac.o
 .debug_ranges  0x00000000       0x58 ./objects/tremo_dac.o
 .debug_line    0x00000000      0x399 ./objects/tremo_dac.o
 .debug_str     0x00000000      0x9b7 ./objects/tremo_dac.o
 .comment       0x00000000       0x4d ./objects/tremo_dac.o
 .debug_frame   0x00000000       0xc4 ./objects/tremo_dac.o
 .ARM.attributes
                0x00000000       0x32 ./objects/tremo_dac.o
 .text          0x00000000        0x0 ./objects/tremo_delay.o
 .data          0x00000000        0x0 ./objects/tremo_delay.o
 .text          0x00000000        0x0 ./objects/tremo_dma.o
 .data          0x00000000        0x0 ./objects/tremo_dma.o
 .bss           0x00000000        0x0 ./objects/tremo_dma.o
 .text.write32_bit_reg.part.0
                0x00000000       0x20 ./objects/tremo_dma.o
 .text.set_dma_mode
                0x00000000      0x2b4 ./objects/tremo_dma.o
 .text.dma0_IRQHandler
                0x00000000       0x60 ./objects/tremo_dma.o
 .text.dma1_IRQHandler
                0x00000000       0x60 ./objects/tremo_dma.o
 .text.dma_init
                0x00000000      0x13c ./objects/tremo_dma.o
 .text.dma_lli_init
                0x00000000      0x22c ./objects/tremo_dma.o
 .text.dma_config_reload
                0x00000000       0x42 ./objects/tremo_dma.o
 .text.dma_deinit
                0x00000000       0x3e ./objects/tremo_dma.o
 .text.dma_addr_update
                0x00000000       0x70 ./objects/tremo_dma.o
 .text.dma_ch_enable
                0x00000000       0x5e ./objects/tremo_dma.o
 .text.dma_ch_disable
                0x00000000       0x2c ./objects/tremo_dma.o
 .text.dma_finalize
                0x00000000      0x1c8 ./objects/tremo_dma.o
 .debug_info    0x00000000     0x3da4 ./objects/tremo_dma.o
 .debug_abbrev  0x00000000      0x4e0 ./objects/tremo_dma.o
 .debug_loc     0x00000000     0x31f0 ./objects/tremo_dma.o
 .debug_aranges
                0x00000000       0x78 ./objects/tremo_dma.o
 .debug_ranges  0x00000000      0x150 ./objects/tremo_dma.o
 .debug_line    0x00000000     0x1810 ./objects/tremo_dma.o
 .debug_str     0x00000000     0x1037 ./objects/tremo_dma.o
 .comment       0x00000000       0x4d ./objects/tremo_dma.o
 .debug_frame   0x00000000      0x13c ./objects/tremo_dma.o
 .ARM.attributes
                0x00000000       0x32 ./objects/tremo_dma.o
 COMMON         0x00000000       0x20 ./objects/tremo_dma.o
 .text          0x00000000        0x0 ./objects/tremo_flash.o
 .data          0x00000000        0x0 ./objects/tremo_flash.o
 .bss           0x00000000        0x0 ./objects/tremo_flash.o
 .text.flash_erase_all
                0x00000000       0x68 ./objects/tremo_flash.o
 .text.flash_erase_page
                0x00000000       0x64 ./objects/tremo_flash.o
 .text.flash_program_bytes
                0x00000000       0xb4 ./objects/tremo_flash.o
 .text.flash_program_line
                0x00000000       0x94 ./objects/tremo_flash.o
 .text.flash_otp_program_data
                0x00000000       0x4c ./objects/tremo_flash.o
 .debug_info    0x00000000      0xe92 ./objects/tremo_flash.o
 .debug_abbrev  0x00000000      0x2c0 ./objects/tremo_flash.o
 .debug_loc     0x00000000      0x3fe ./objects/tremo_flash.o
 .debug_aranges
                0x00000000       0x40 ./objects/tremo_flash.o
 .debug_ranges  0x00000000       0x80 ./objects/tremo_flash.o
 .debug_line    0x00000000      0x6ab ./objects/tremo_flash.o
 .debug_str     0x00000000      0x7f1 ./objects/tremo_flash.o
 .comment       0x00000000       0x4d ./objects/tremo_flash.o
 .debug_frame   0x00000000       0x98 ./objects/tremo_flash.o
 .ARM.attributes
                0x00000000       0x32 ./objects/tremo_flash.o
 .text          0x00000000        0x0 ./objects/tremo_gpio.o
 .data          0x00000000        0x0 ./objects/tremo_gpio.o
 .bss           0x00000000        0x0 ./objects/tremo_gpio.o
 .text.gpio_deinit
                0x00000000       0x36 ./objects/tremo_gpio.o
 .text.gpio_toggle
                0x00000000        0xe ./objects/tremo_gpio.o
 .text.gpio_config_drive_capability
                0x00000000       0x16 ./objects/tremo_gpio.o
 .text.gpio_clear_interrupt
                0x00000000       0x10 ./objects/tremo_gpio.o
 .text.gpio_config_interrupt
                0x00000000       0x20 ./objects/tremo_gpio.o
 .text.gpio_get_interrupt_status
                0x00000000       0x14 ./objects/tremo_gpio.o
 .text.gpio_config_wakeup
                0x00000000       0x2a ./objects/tremo_gpio.o
 .text.gpio_config_stop3_wakeup
                0x00000000       0x68 ./objects/tremo_gpio.o
 .text          0x00000000        0x0 ./objects/tremo_i2c.o
 .data          0x00000000        0x0 ./objects/tremo_i2c.o
 .bss           0x00000000        0x0 ./objects/tremo_i2c.o
 .text.i2c_deinit
                0x00000000       0x3c ./objects/tremo_i2c.o
 .text.i2c_config_init
                0x00000000        0x8 ./objects/tremo_i2c.o
 .text.i2c_init
                0x00000000       0xa0 ./objects/tremo_i2c.o
 .text.i2c_cmd  0x00000000       0x22 ./objects/tremo_i2c.o
 .text.i2c_dma_cmd
                0x00000000       0x12 ./objects/tremo_i2c.o
 .text.i2c_config_interrupt
                0x00000000       0x36 ./objects/tremo_i2c.o
 .text.i2c_clear_interrupt
                0x00000000        0xa ./objects/tremo_i2c.o
 .text.i2c_master_send_start
                0x00000000       0x38 ./objects/tremo_i2c.o
 .text.i2c_master_send_stop
                0x00000000       0x12 ./objects/tremo_i2c.o
 .text.i2c_master_send_stop_with_data
                0x00000000       0x2a ./objects/tremo_i2c.o
 .text.i2c_send_data
                0x00000000       0x22 ./objects/tremo_i2c.o
 .text.i2c_receive_data
                0x00000000        0xe ./objects/tremo_i2c.o
 .text.i2c_set_receive_mode
                0x00000000       0x38 ./objects/tremo_i2c.o
 .text.i2c_clear_flag_status
                0x00000000        0xa ./objects/tremo_i2c.o
 .text.i2c_get_flag_status
                0x00000000       0x28 ./objects/tremo_i2c.o
 .text.i2c_get_interrupt_status
                0x00000000       0x12 ./objects/tremo_i2c.o
 .debug_info    0x00000000      0xaf7 ./objects/tremo_i2c.o
 .debug_abbrev  0x00000000      0x30d ./objects/tremo_i2c.o
 .debug_loc     0x00000000      0x4dc ./objects/tremo_i2c.o
 .debug_aranges
                0x00000000       0x90 ./objects/tremo_i2c.o
 .debug_ranges  0x00000000       0x98 ./objects/tremo_i2c.o
 .debug_line    0x00000000      0x6bf ./objects/tremo_i2c.o
 .debug_str     0x00000000      0xb92 ./objects/tremo_i2c.o
 .comment       0x00000000       0x4d ./objects/tremo_i2c.o
 .debug_frame   0x00000000      0x12c ./objects/tremo_i2c.o
 .ARM.attributes
                0x00000000       0x32 ./objects/tremo_i2c.o
 .text          0x00000000        0x0 ./objects/tremo_i2s.o
 .data          0x00000000        0x0 ./objects/tremo_i2s.o
 .bss           0x00000000        0x0 ./objects/tremo_i2s.o
 .text.i2s_init_struct
                0x00000000        0xc ./objects/tremo_i2s.o
 .text.i2s_calculate_devision
                0x00000000       0x2c ./objects/tremo_i2s.o
 .text.i2s_config_interrupt
                0x00000000       0x10 ./objects/tremo_i2s.o
 .text.i2s_clear_interrupt
                0x00000000       0x10 ./objects/tremo_i2s.o
 .text.i2s_get_interrupt_status
                0x00000000        0xc ./objects/tremo_i2s.o
 .text.i2s_cmd  0x00000000       0x10 ./objects/tremo_i2s.o
 .text.i2s_tx_block_cmd
                0x00000000       0x10 ./objects/tremo_i2s.o
 .text.i2s_rx_block_cmd
                0x00000000       0x10 ./objects/tremo_i2s.o
 .text.i2s_tx_channel_cmd
                0x00000000       0x10 ./objects/tremo_i2s.o
 .text.i2s_rx_channel_cmd
                0x00000000       0x10 ./objects/tremo_i2s.o
 .text.i2s_master_clock_cmd
                0x00000000       0x10 ./objects/tremo_i2s.o
 .text.i2s_init
                0x00000000       0x46 ./objects/tremo_i2s.o
 .text.i2s_deinit
                0x00000000       0x2c ./objects/tremo_i2s.o
 .text.i2s_receive_data
                0x00000000        0xa ./objects/tremo_i2s.o
 .text.i2s_send_data
                0x00000000       0x3a ./objects/tremo_i2s.o
 .debug_info    0x00000000      0x955 ./objects/tremo_i2s.o
 .debug_abbrev  0x00000000      0x274 ./objects/tremo_i2s.o
 .debug_loc     0x00000000      0x261 ./objects/tremo_i2s.o
 .debug_aranges
                0x00000000       0x90 ./objects/tremo_i2s.o
 .debug_ranges  0x00000000       0x98 ./objects/tremo_i2s.o
 .debug_line    0x00000000      0x567 ./objects/tremo_i2s.o
 .debug_str     0x00000000      0x85b ./objects/tremo_i2s.o
 .comment       0x00000000       0x4d ./objects/tremo_i2s.o
 .debug_frame   0x00000000      0x11c ./objects/tremo_i2s.o
 .ARM.attributes
                0x00000000       0x32 ./objects/tremo_i2s.o
 .text          0x00000000        0x0 ./objects/tremo_iwdg.o
 .data          0x00000000        0x0 ./objects/tremo_iwdg.o
 .bss           0x00000000        0x0 ./objects/tremo_iwdg.o
 .text.check_iwdg_sr_done
                0x00000000       0x14 ./objects/tremo_iwdg.o
 .text.iwdg_config_interrupt
                0x00000000       0x18 ./objects/tremo_iwdg.o
 .text.iwdg_clear_interrupt
                0x00000000       0x14 ./objects/tremo_iwdg.o
 .text.iwdg_deinit
                0x00000000       0x1e ./objects/tremo_iwdg.o
 .text.iwdg_init
                0x00000000       0x4c ./objects/tremo_iwdg.o
 .text.iwdg_set_prescaler
                0x00000000       0x18 ./objects/tremo_iwdg.o
 .text.iwdg_set_reload
                0x00000000       0x1c ./objects/tremo_iwdg.o
 .text.iwdg_set_window_value
                0x00000000       0x1c ./objects/tremo_iwdg.o
 .text.iwdg_reload
                0x00000000       0x20 ./objects/tremo_iwdg.o
 .text.iwdg_start
                0x00000000       0x1c ./objects/tremo_iwdg.o
 .text.iwdg_stop
                0x00000000       0x1c ./objects/tremo_iwdg.o
 .debug_info    0x00000000      0x5b2 ./objects/tremo_iwdg.o
 .debug_abbrev  0x00000000      0x1cc ./objects/tremo_iwdg.o
 .debug_loc     0x00000000      0x193 ./objects/tremo_iwdg.o
 .debug_aranges
                0x00000000       0x70 ./objects/tremo_iwdg.o
 .debug_ranges  0x00000000       0x60 ./objects/tremo_iwdg.o
 .debug_line    0x00000000      0x426 ./objects/tremo_iwdg.o
 .debug_str     0x00000000      0x77b ./objects/tremo_iwdg.o
 .comment       0x00000000       0x4d ./objects/tremo_iwdg.o
 .debug_frame   0x00000000      0x10c ./objects/tremo_iwdg.o
 .ARM.attributes
                0x00000000       0x32 ./objects/tremo_iwdg.o
 .text          0x00000000        0x0 ./objects/tremo_lcd.o
 .data          0x00000000        0x0 ./objects/tremo_lcd.o
 .bss           0x00000000        0x0 ./objects/tremo_lcd.o
 .text.lcd_check_sync_done
                0x00000000       0x18 ./objects/tremo_lcd.o
 .text.lcd_enable
                0x00000000       0x28 ./objects/tremo_lcd.o
 .text.lcd_config_duty
                0x00000000       0x30 ./objects/tremo_lcd.o
 .text.lcd_config_bias
                0x00000000       0x2c ./objects/tremo_lcd.o
 .text.lcd_config_prescaler
                0x00000000       0x2c ./objects/tremo_lcd.o
 .text.lcd_config_division_clock
                0x00000000       0x2c ./objects/tremo_lcd.o
 .text.lcd_init
                0x00000000       0x22 ./objects/tremo_lcd.o
 .text.lcd_config_blink_freq
                0x00000000       0x2c ./objects/tremo_lcd.o
 .text.lcd_config_blink_sel
                0x00000000       0x2c ./objects/tremo_lcd.o
 .text.lcd_config_dead_cycle
                0x00000000       0x2c ./objects/tremo_lcd.o
 .text.lcd_enable_switch
                0x00000000       0x28 ./objects/tremo_lcd.o
 .text.lcd_config_large_current_num
                0x00000000       0x2c ./objects/tremo_lcd.o
 .text.lcd_write_com_seg_bit
                0x00000000       0x98 ./objects/tremo_lcd.o
 .text.lcd_clear_com_seg_state
                0x00000000       0x50 ./objects/tremo_lcd.o
 .text.lcd_config_drive_mode
                0x00000000       0x1c ./objects/tremo_lcd.o
 .text.lcd_config_interrupt
                0x00000000       0x18 ./objects/tremo_lcd.o
 .text.lcd_get_interrupt_status
                0x00000000       0x10 ./objects/tremo_lcd.o
 .text.lcd_clear_interrupt_status
                0x00000000       0x10 ./objects/tremo_lcd.o
 .text.lcd_enable_com
                0x00000000       0x4c ./objects/tremo_lcd.o
 .text.lcd_enable_seg
                0x00000000       0x30 ./objects/tremo_lcd.o
 .text.lcd_enable_analog
                0x00000000       0x10 ./objects/tremo_lcd.o
 .debug_info    0x00000000      0xbc7 ./objects/tremo_lcd.o
 .debug_abbrev  0x00000000      0x28e ./objects/tremo_lcd.o
 .debug_loc     0x00000000      0x72e ./objects/tremo_lcd.o
 .debug_aranges
                0x00000000       0xc0 ./objects/tremo_lcd.o
 .debug_ranges  0x00000000       0xb0 ./objects/tremo_lcd.o
 .debug_line    0x00000000      0x979 ./objects/tremo_lcd.o
 .debug_str     0x00000000      0xc39 ./objects/tremo_lcd.o
 .comment       0x00000000       0x4d ./objects/tremo_lcd.o
 .debug_frame   0x00000000      0x1ec ./objects/tremo_lcd.o
 .ARM.attributes
                0x00000000       0x32 ./objects/tremo_lcd.o
 .text          0x00000000        0x0 ./objects/tremo_lptimer.o
 .data          0x00000000        0x0 ./objects/tremo_lptimer.o
 .bss           0x00000000        0x0 ./objects/tremo_lptimer.o
 .text.lptimer_init
                0x00000000       0x72 ./objects/tremo_lptimer.o
 .text.lptimer_deinit
                0x00000000       0x4c ./objects/tremo_lptimer.o
 .text.lptimer_enable_clock_filter
                0x00000000       0x18 ./objects/tremo_lptimer.o
 .text.lptimer_enable_trigger_filter
                0x00000000       0x18 ./objects/tremo_lptimer.o
 .text.lptimer_config_wakeup
                0x00000000       0x16 ./objects/tremo_lptimer.o
 .text.lptimer_config_timeout
                0x00000000       0x18 ./objects/tremo_lptimer.o
 .text.lptimer_config_wave
                0x00000000       0x18 ./objects/tremo_lptimer.o
 .text.lptimer_config_encoder
                0x00000000       0x18 ./objects/tremo_lptimer.o
 .text.lptimer_config_trigger_polarity
                0x00000000       0x1c ./objects/tremo_lptimer.o
 .text.lptimer_config_trigger_source
                0x00000000       0x1c ./objects/tremo_lptimer.o
 .text.lptimer_config_clock_prescaler
                0x00000000       0x1c ./objects/tremo_lptimer.o
 .text.lptimer_config_trigger_filter
                0x00000000       0x1c ./objects/tremo_lptimer.o
 .text.lptimer_config_clock_filter
                0x00000000       0x1c ./objects/tremo_lptimer.o
 .text.lptimer_config_clock_polarity
                0x00000000       0x1c ./objects/tremo_lptimer.o
 .text.lptimer_cmd
                0x00000000       0x18 ./objects/tremo_lptimer.o
 .text.lptimer_config_count_mode
                0x00000000       0x16 ./objects/tremo_lptimer.o
 .text.lptimer_config_interrupt
                0x00000000       0x10 ./objects/tremo_lptimer.o
 .text.lptimer_clear_interrupt
                0x00000000        0x8 ./objects/tremo_lptimer.o
 .text.lptimer_set_arr_register
                0x00000000        0xa ./objects/tremo_lptimer.o
 .text.lptimer_set_cmp_register
                0x00000000        0xa ./objects/tremo_lptimer.o
 .text.lptimer_get_status
                0x00000000        0xe ./objects/tremo_lptimer.o
 .text.lptimer_get_clear_status_flag
                0x00000000        0xe ./objects/tremo_lptimer.o
 .text.lptimer_get_interrupt_status
                0x00000000        0xe ./objects/tremo_lptimer.o
 .debug_info    0x00000000     0x119e ./objects/tremo_lptimer.o
 .debug_abbrev  0x00000000      0x2c3 ./objects/tremo_lptimer.o
 .debug_loc     0x00000000      0x60a ./objects/tremo_lptimer.o
 .debug_aranges
                0x00000000       0xd0 ./objects/tremo_lptimer.o
 .debug_ranges  0x00000000       0xc0 ./objects/tremo_lptimer.o
 .debug_line    0x00000000      0xb8f ./objects/tremo_lptimer.o
 .debug_str     0x00000000      0xf4e ./objects/tremo_lptimer.o
 .comment       0x00000000       0x4d ./objects/tremo_lptimer.o
 .debug_frame   0x00000000      0x190 ./objects/tremo_lptimer.o
 .ARM.attributes
                0x00000000       0x32 ./objects/tremo_lptimer.o
 .text          0x00000000        0x0 ./objects/tremo_lpuart.o
 .data          0x00000000        0x0 ./objects/tremo_lpuart.o
 .bss           0x00000000        0x0 ./objects/tremo_lpuart.o
 .text.lpuart_config_dma
                0x00000000       0x10 ./objects/tremo_lpuart.o
 .text.lpuart_config_interrupt
                0x00000000        0x4 ./objects/tremo_lpuart.o
 .text.lpuart_config_rts
                0x00000000       0x26 ./objects/tremo_lpuart.o
 .text.lpuart_config_rx
                0x00000000       0x26 ./objects/tremo_lpuart.o
 .text.lpuart_config_cts
                0x00000000       0x12 ./objects/tremo_lpuart.o
 .text.lpuart_config_tx
                0x00000000       0x12 ./objects/tremo_lpuart.o
 .text.lpuart_get_rx_status
                0x00000000       0x12 ./objects/tremo_lpuart.o
 .text.lpuart_clear_rx_status
                0x00000000       0x18 ./objects/tremo_lpuart.o
 .text.lpuart_get_rx_not_empty_status
                0x00000000        0x8 ./objects/tremo_lpuart.o
 .text.lpuart_receive_data
                0x00000000       0x10 ./objects/tremo_lpuart.o
 .text.lpuart_get_tx_empty_status
                0x00000000        0x8 ./objects/tremo_lpuart.o
 .text.lpuart_send_data
                0x00000000        0xe ./objects/tremo_lpuart.o
 .text.lpuart_get_tx_done_status
                0x00000000        0x8 ./objects/tremo_lpuart.o
 .text.lpuart_clear_tx_done_status
                0x00000000        0xa ./objects/tremo_lpuart.o
 .text.lpuart_init
                0x00000000       0x88 ./objects/tremo_lpuart.o
 .text.lpuart_deinit
                0x00000000       0x2c ./objects/tremo_lpuart.o
 .debug_info    0x00000000     0x1326 ./objects/tremo_lpuart.o
 .debug_abbrev  0x00000000      0x30f ./objects/tremo_lpuart.o
 .debug_loc     0x00000000      0x3f1 ./objects/tremo_lpuart.o
 .debug_aranges
                0x00000000       0x90 ./objects/tremo_lpuart.o
 .debug_ranges  0x00000000       0x80 ./objects/tremo_lpuart.o
 .debug_line    0x00000000      0x623 ./objects/tremo_lpuart.o
 .debug_str     0x00000000     0x10a2 ./objects/tremo_lpuart.o
 .comment       0x00000000       0x4d ./objects/tremo_lpuart.o
 .debug_frame   0x00000000      0x13c ./objects/tremo_lpuart.o
 .ARM.attributes
                0x00000000       0x32 ./objects/tremo_lpuart.o
 .text          0x00000000        0x0 ./objects/tremo_pwr.o
 .data          0x00000000        0x0 ./objects/tremo_pwr.o
 .bss           0x00000000        0x0 ./objects/tremo_pwr.o
 .text.pwr_deepsleep_wfe
                0x00000000        0x6 ./objects/tremo_pwr.o
 .text.pwr_enter_lprun_mode
                0x00000000       0x18 ./objects/tremo_pwr.o
 .text.pwr_sleep_wfi
                0x00000000       0x18 ./objects/tremo_pwr.o
 .text.pwr_sleep_wfe
                0x00000000        0xc ./objects/tremo_pwr.o
 .text.pwr_exit_lprun_mode
                0x00000000       0x1c ./objects/tremo_pwr.o
 .text          0x00000000        0x0 ./objects/tremo_rcc.o
 .data          0x00000000        0x0 ./objects/tremo_rcc.o
 .bss           0x00000000        0x0 ./objects/tremo_rcc.o
 .text.rcc_set_sys_clk_source
                0x00000000       0x10 ./objects/tremo_rcc.o
 .text.rcc_set_systick_source
                0x00000000       0x2c ./objects/tremo_rcc.o
 .text.rcc_set_mco_clk_source
                0x00000000       0x28 ./objects/tremo_rcc.o
 .text.rcc_set_uart0_clk_source
                0x00000000       0x28 ./objects/tremo_rcc.o
 .text.rcc_set_uart1_clk_source
                0x00000000       0x28 ./objects/tremo_rcc.o
 .text.rcc_set_uart2_clk_source
                0x00000000       0x28 ./objects/tremo_rcc.o
 .text.rcc_set_uart3_clk_source
                0x00000000       0x28 ./objects/tremo_rcc.o
 .text.rcc_set_lptimer0_clk_source
                0x00000000       0x34 ./objects/tremo_rcc.o
 .text.rcc_set_lptimer1_clk_source
                0x00000000       0x38 ./objects/tremo_rcc.o
 .text.rcc_set_lcd_clk_source
                0x00000000       0x28 ./objects/tremo_rcc.o
 .text.rcc_set_lpuart_clk_source
                0x00000000       0x28 ./objects/tremo_rcc.o
 .text.rcc_set_rtc_clk_source
                0x00000000       0x28 ./objects/tremo_rcc.o
 .text.rcc_set_iwdg_clk_source
                0x00000000       0x28 ./objects/tremo_rcc.o
 .text.rcc_set_qspi_clk_source
                0x00000000       0x28 ./objects/tremo_rcc.o
 .text.rcc_set_i2s_clk_source
                0x00000000       0x28 ./objects/tremo_rcc.o
 .text.rcc_get_sys_clk_source
                0x00000000        0xc ./objects/tremo_rcc.o
 .text.rcc_get_systick_source
                0x00000000       0x20 ./objects/tremo_rcc.o
 .text.rcc_get_mco_clk_source
                0x00000000        0xc ./objects/tremo_rcc.o
 .text.rcc_get_lptimer0_clk_source
                0x00000000       0x14 ./objects/tremo_rcc.o
 .text.rcc_get_lptimer1_clk_source
                0x00000000       0x16 ./objects/tremo_rcc.o
 .text.rcc_get_lcd_clk_source
                0x00000000        0xc ./objects/tremo_rcc.o
 .text.rcc_get_lpuart_clk_source
                0x00000000        0xc ./objects/tremo_rcc.o
 .text.rcc_get_iwdg_clk_source
                0x00000000        0xc ./objects/tremo_rcc.o
 .text.rcc_get_adc_clk_source
                0x00000000        0xc ./objects/tremo_rcc.o
 .text.rcc_get_qspi_clk_source
                0x00000000        0xc ./objects/tremo_rcc.o
 .text.rcc_get_i2s_clk_source
                0x00000000        0xc ./objects/tremo_rcc.o
 .text.rcc_set_hclk_div
                0x00000000       0x10 ./objects/tremo_rcc.o
 .text.rcc_set_pclk_div
                0x00000000       0x16 ./objects/tremo_rcc.o
 .text.rcc_set_mco_clk_div
                0x00000000       0x28 ./objects/tremo_rcc.o
 .text.rcc_enable_mco_clk_output
                0x00000000       0x16 ./objects/tremo_rcc.o
 .text.rcc_set_reset_mask
                0x00000000       0x10 ./objects/tremo_rcc.o
 .text.rcc_get_reset_mask
                0x00000000        0xc ./objects/tremo_rcc.o
 .text.rcc_set_i2s_mclk_div
                0x00000000       0x12 ./objects/tremo_rcc.o
 .text.rcc_set_i2s_sclk_div
                0x00000000       0x10 ./objects/tremo_rcc.o
 .text          0x00000000        0x0 ./objects/tremo_rtc.o
 .data          0x00000000        0x0 ./objects/tremo_rtc.o
 .bss           0x00000000        0x0 ./objects/tremo_rtc.o
 .text.rtc_alarm_cmd
                0x00000000       0x3c ./objects/tremo_rtc.o
 .text.rtc_config_alarm_wakeup
                0x00000000       0x30 ./objects/tremo_rtc.o
 .text.rtc_tamper_cmd
                0x00000000       0x20 ./objects/tremo_rtc.o
 .text.rtc_config_tamper_high_level
                0x00000000       0x24 ./objects/tremo_rtc.o
 .text.rtc_config_tamper_level_wakeup
                0x00000000       0x24 ./objects/tremo_rtc.o
 .text.rtc_config_tamper_wakeup
                0x00000000       0x24 ./objects/tremo_rtc.o
 .text.rtc_config_tamper_filter
                0x00000000       0x28 ./objects/tremo_rtc.o
 .text.rtc_wakeup_io_cmd
                0x00000000       0x38 ./objects/tremo_rtc.o
 .text.rtc_config_wakeup_io_high_level
                0x00000000       0x3c ./objects/tremo_rtc.o
 .text.rtc_config_wakeup_io_level_wakeup
                0x00000000       0x3c ./objects/tremo_rtc.o
 .text.rtc_config_wakeup_io_wakeup
                0x00000000       0x3c ./objects/tremo_rtc.o
 .text.rtc_config_wakeup_io_filter
                0x00000000       0x50 ./objects/tremo_rtc.o
 .text.rtc_set_calendar
                0x00000000       0xc4 ./objects/tremo_rtc.o
 .text.rtc_get_subsecond_cnt
                0x00000000        0xc ./objects/tremo_rtc.o
 .text.rtc_get_cyc_cnt
                0x00000000       0x10 ./objects/tremo_rtc.o
 .text.rtc_clear_sec_it_status
                0x00000000       0x10 ./objects/tremo_rtc.o
 .text.rtc_get_sec_it_status
                0x00000000       0x10 ./objects/tremo_rtc.o
 .text.rtc_set_alarm
                0x00000000      0x1f4 ./objects/tremo_rtc.o
 .text.rtc_config_ppm
                0x00000000       0x2c ./objects/tremo_rtc.o
 .text.rtc_invert_io_level
                0x00000000       0x24 ./objects/tremo_rtc.o
 .text.rtc_config_io_output
                0x00000000       0x20 ./objects/tremo_rtc.o
 .text.rtc_get_io_output
                0x00000000       0x14 ./objects/tremo_rtc.o
 .text.rtc_config_erase_ret_sram
                0x00000000       0x24 ./objects/tremo_rtc.o
 .text          0x00000000        0x0 ./objects/tremo_spi.o
 .data          0x00000000        0x0 ./objects/tremo_spi.o
 .bss           0x00000000        0x0 ./objects/tremo_spi.o
 .text.ssp_init_struct
                0x00000000       0x1c ./objects/tremo_spi.o
 .text.ssp_config_interrupt
                0x00000000       0x10 ./objects/tremo_spi.o
 .text.ssp_cmd  0x00000000       0x12 ./objects/tremo_spi.o
 .text.ssp_init
                0x00000000       0xe0 ./objects/tremo_spi.o
 .text.ssp_deinit
                0x00000000       0x6c ./objects/tremo_spi.o
 .text.ssp_send_data
                0x00000000       0x2c ./objects/tremo_spi.o
 .text.ssp_receive_data
                0x00000000       0x2c ./objects/tremo_spi.o
 .debug_info    0x00000000      0x8df ./objects/tremo_spi.o
 .debug_abbrev  0x00000000      0x2b2 ./objects/tremo_spi.o
 .debug_loc     0x00000000      0x4a8 ./objects/tremo_spi.o
 .debug_aranges
                0x00000000       0x50 ./objects/tremo_spi.o
 .debug_ranges  0x00000000       0x70 ./objects/tremo_spi.o
 .debug_line    0x00000000      0x51c ./objects/tremo_spi.o
 .debug_str     0x00000000      0x82a ./objects/tremo_spi.o
 .comment       0x00000000       0x4d ./objects/tremo_spi.o
 .debug_frame   0x00000000       0xb4 ./objects/tremo_spi.o
 .ARM.attributes
                0x00000000       0x32 ./objects/tremo_spi.o
 .text          0x00000000        0x0 ./objects/tremo_system.o
 .data          0x00000000        0x0 ./objects/tremo_system.o
 .bss           0x00000000        0x0 ./objects/tremo_system.o
 .text.system_reset
                0x00000000       0x20 ./objects/tremo_system.o
 .text          0x00000000        0x0 ./objects/tremo_timer.o
 .data          0x00000000        0x0 ./objects/tremo_timer.o
 .bss           0x00000000        0x0 ./objects/tremo_timer.o
 .text.timer_init
                0x00000000       0x44 ./objects/tremo_timer.o
 .text.timer_deinit
                0x00000000       0x8c ./objects/tremo_timer.o
 .text.timer_cmd
                0x00000000       0x12 ./objects/tremo_timer.o
 .text.timer_disable_update
                0x00000000       0x12 ./objects/tremo_timer.o
 .text.timer_config_update_source
                0x00000000       0x12 ./objects/tremo_timer.o
 .text.timer_config_master_mode
                0x00000000       0x10 ./objects/tremo_timer.o
 .text.timer_enable_xor
                0x00000000       0x12 ./objects/tremo_timer.o
 .text.timer_enable_ccds_upd
                0x00000000       0x12 ./objects/tremo_timer.o
 .text.timer_config_etr
                0x00000000       0x16 ./objects/tremo_timer.o
 .text.timer_config_external_clock2
                0x00000000       0x12 ./objects/tremo_timer.o
 .text.timer_config_itrx
                0x00000000        0xc ./objects/tremo_timer.o
 .text.timer_config_slave_mode
                0x00000000       0x10 ./objects/tremo_timer.o
 .text.timer_config_ti
                0x00000000       0xa4 ./objects/tremo_timer.o
 .text.timer_config_polarity_filter_ti
                0x00000000       0x74 ./objects/tremo_timer.o
 .text.timer_config_slave
                0x00000000       0x7e ./objects/tremo_timer.o
 .text.timer_config_channel_ic
                0x00000000       0x72 ./objects/tremo_timer.o
 .text.timer_config_oc
                0x00000000       0xb4 ./objects/tremo_timer.o
 .text.timer_config_one_pulse
                0x00000000       0x12 ./objects/tremo_timer.o
 .text.timer_config_ts
                0x00000000       0x10 ./objects/tremo_timer.o
 .text.timer_clear_ocxref
                0x00000000       0x80 ./objects/tremo_timer.o
 .text.timer_config_pwm
                0x00000000       0x34 ./objects/tremo_timer.o
 .text.timer_config_dma
                0x00000000       0x10 ./objects/tremo_timer.o
 .text.timer_config_interrupt
                0x00000000       0x10 ./objects/tremo_timer.o
 .text.timer_get_status
                0x00000000       0x10 ./objects/tremo_timer.o
 .text.timer_clear_status
                0x00000000        0xa ./objects/tremo_timer.o
 .text.timer_generate_event
                0x00000000       0x10 ./objects/tremo_timer.o
 .text.timer_set_dma_rw_len
                0x00000000       0x10 ./objects/tremo_timer.o
 .text.timer_set_dma_base_addr
                0x00000000       0x10 ./objects/tremo_timer.o
 .text.timer_config_or_tim0_ti0
                0x00000000       0x10 ./objects/tremo_timer.o
 .text.timer_config_or_tim0_ti3
                0x00000000       0x10 ./objects/tremo_timer.o
 .text.timer_config_or_tim0_etr
                0x00000000       0x10 ./objects/tremo_timer.o
 .text.timer_config_or_tim1_ti2
                0x00000000       0x10 ./objects/tremo_timer.o
 .text.timer_config_or_tim2_ti0
                0x00000000       0x10 ./objects/tremo_timer.o
 .text.timer_config_or_tim2_ti1
                0x00000000       0x10 ./objects/tremo_timer.o
 .text.timer_config_or_tim2_etr
                0x00000000       0x10 ./objects/tremo_timer.o
 .text.timer_config_or_tim3_ti0
                0x00000000       0x10 ./objects/tremo_timer.o
 .text.timer_config_or_tim3_etr
                0x00000000       0x10 ./objects/tremo_timer.o
 .debug_info    0x00000000     0x27f7 ./objects/tremo_timer.o
 .debug_abbrev  0x00000000      0x345 ./objects/tremo_timer.o
 .debug_loc     0x00000000     0x1174 ./objects/tremo_timer.o
 .debug_aranges
                0x00000000      0x140 ./objects/tremo_timer.o
 .debug_ranges  0x00000000      0x130 ./objects/tremo_timer.o
 .debug_line    0x00000000      0xe7f ./objects/tremo_timer.o
 .debug_str     0x00000000     0x2681 ./objects/tremo_timer.o
 .comment       0x00000000       0x4d ./objects/tremo_timer.o
 .debug_frame   0x00000000      0x2e4 ./objects/tremo_timer.o
 .ARM.attributes
                0x00000000       0x32 ./objects/tremo_timer.o
 .text          0x00000000        0x0 ./objects/tremo_uart.o
 .data          0x00000000        0x0 ./objects/tremo_uart.o
 .bss           0x00000000        0x0 ./objects/tremo_uart.o
 .text.uart_get_flag_status
                0x00000000        0xc ./objects/tremo_uart.o
 .text.uart_deinit
                0x00000000       0x48 ./objects/tremo_uart.o
 .text.uart_set_rx_fifo_threshold
                0x00000000        0xc ./objects/tremo_uart.o
 .text.uart_set_tx_fifo_threshold
                0x00000000        0xc ./objects/tremo_uart.o
 .text.uart_get_interrupt_status
                0x00000000        0xc ./objects/tremo_uart.o
 .text.uart_clear_interrupt
                0x00000000        0x4 ./objects/tremo_uart.o
 .text.uart_irda_config
                0x00000000       0x8c ./objects/tremo_uart.o
 .text.uart_irda_cmd
                0x00000000       0x12 ./objects/tremo_uart.o
 .text.uart_dma_config
                0x00000000       0x10 ./objects/tremo_uart.o
 .text.uart_dma_onerror_config
                0x00000000       0x12 ./objects/tremo_uart.o
 .text          0x00000000        0x0 ./objects/tremo_wdg.o
 .data          0x00000000        0x0 ./objects/tremo_wdg.o
 .bss           0x00000000        0x0 ./objects/tremo_wdg.o
 .text.wdg_deinit
                0x00000000       0x1e ./objects/tremo_wdg.o
 .text.wdg_start
                0x00000000       0x30 ./objects/tremo_wdg.o
 .text.wdg_reload
                0x00000000       0x20 ./objects/tremo_wdg.o
 .text.wdg_stop
                0x00000000       0x34 ./objects/tremo_wdg.o
 .debug_info    0x00000000      0xeeb ./objects/tremo_wdg.o
 .debug_abbrev  0x00000000      0x26c ./objects/tremo_wdg.o
 .debug_loc     0x00000000       0x2c ./objects/tremo_wdg.o
 .debug_aranges
                0x00000000       0x38 ./objects/tremo_wdg.o
 .debug_ranges  0x00000000       0x28 ./objects/tremo_wdg.o
 .debug_line    0x00000000      0x2bf ./objects/tremo_wdg.o
 .debug_str     0x00000000      0xada ./objects/tremo_wdg.o
 .comment       0x00000000       0x4d ./objects/tremo_wdg.o
 .debug_frame   0x00000000       0x5c ./objects/tremo_wdg.o
 .ARM.attributes
                0x00000000       0x32 ./objects/tremo_wdg.o
 .text          0x00000000        0x0 ./objects/main.o
 .data          0x00000000        0x0 ./objects/main.o
 .bss           0x00000000        0x0 ./objects/main.o
 .text          0x00000000        0x0 ./objects/tremo_it.o
 .data          0x00000000        0x0 ./objects/tremo_it.o
 .text          0x00000000        0x0 ./objects/classa.o
 .text          0x00000000        0x0 ./objects/strtohex.o
 .data          0x00000000        0x0 ./objects/strtohex.o
 .bss           0x00000000        0x0 ./objects/strtohex.o
 .text          0x00000000        0x0 ./objects/set_tx_duty_cycle_time.o
 .data          0x00000000        0x0 ./objects/set_tx_duty_cycle_time.o
 .bss           0x00000000        0x0 ./objects/set_tx_duty_cycle_time.o
 .text          0x00000000        0x0 ./objects/gwlog.o
 .data          0x00000000        0x0 ./objects/gwlog.o
 .bss           0x00000000        0x0 ./objects/gwlog.o
 .text          0x00000000        0x0 ./objects/iic.o
 .data          0x00000000        0x0 ./objects/iic.o
 .bss           0x00000000        0x0 ./objects/iic.o
 .text          0x00000000        0x0 ./objects/ads1115.o
 .data          0x00000000        0x0 ./objects/ads1115.o
 .bss           0x00000000        0x0 ./objects/ads1115.o
 .text          0x00000000        0x0 ./objects/bh1750.o
 .data          0x00000000        0x0 ./objects/bh1750.o
 .bss           0x00000000        0x0 ./objects/bh1750.o
 .text          0x00000000        0x0 ./objects/sgp30.o
 .data          0x00000000        0x0 ./objects/sgp30.o
 .bss           0x00000000        0x0 ./objects/sgp30.o
 .text.sgp30_SetHumi
                0x00000000        0x2 ./objects/sgp30.o
 .text          0x00000000        0x0 ./objects/dht11.o
 .data          0x00000000        0x0 ./objects/dht11.o
 .bss           0x00000000        0x0 ./objects/dht11.o
 .text          0x00000000        0x0 ./objects/sha256.o
 .data          0x00000000        0x0 ./objects/sha256.o
 .bss           0x00000000        0x0 ./objects/sha256.o
 .rodata.str1.1
                0x00000000       0x34 ./objects/sha256.o
 .text.printHash
                0x00000000       0x5c ./objects/sha256.o
 .text          0x00000000        0x0 ./objects/gentriplet.o
 .data          0x00000000        0x0 ./objects/gentriplet.o
 .bss           0x00000000        0x0 ./objects/gentriplet.o
 .text          0x00000000        0x0 ./objects/delay.o
 .data          0x00000000        0x0 ./objects/delay.o
 .bss           0x00000000        0x0 ./objects/delay.o
 .text.Delay    0x00000000       0x1c ./objects/delay.o
 .text          0x00000000        0x0 ./objects/timer.o
 .data          0x00000000        0x0 ./objects/timer.o
 .text.TimerReset
                0x00000000       0x12 ./objects/timer.o
 .text.TimerTempCompensation
                0x00000000        0x2 ./objects/timer.o
 .text          0x00000000        0x0 ./objects/cmac.o
 .data          0x00000000        0x0 ./objects/cmac.o
 .bss           0x00000000        0x0 ./objects/cmac.o
 .text          0x00000000        0x0 ./objects/radio.o
 .text.RadioTx  0x00000000        0x6 ./objects/radio.o
 .text.RadioWriteFifo
                0x00000000        0xa ./objects/radio.o
 .text.RadioReadFifo
                0x00000000        0xa ./objects/radio.o
 .text          0x00000000        0x0 ./objects/sx126x.o
 .data          0x00000000        0x0 ./objects/sx126x.o
 .text.SX126xSetFs
                0x00000000       0x18 ./objects/sx126x.o
 .text.SX126xGetRandom
                0x00000000       0x2e ./objects/sx126x.o
 .text.SX126xSetTxInfinitePreamble
                0x00000000        0xa ./objects/sx126x.o
 .text.SX126xCalibrate
                0x00000000       0x16 ./objects/sx126x.o
 .text.SX126xSetRxTxFallbackMode
                0x00000000       0x18 ./objects/sx126x.o
 .text.SX126xSetDio3AsTcxoCtrl
                0x00000000       0x28 ./objects/sx126x.o
 .text.SX126xGetStatus
                0x00000000       0x1e ./objects/sx126x.o
 .text.SX126xGetDeviceErrors
                0x00000000       0x16 ./objects/sx126x.o
 .text.SX126xClearDeviceErrors
                0x00000000       0x18 ./objects/sx126x.o
 .text          0x00000000        0x0 ./objects/rtc-board.o
 .data          0x00000000        0x0 ./objects/rtc-board.o
 .text.RtcGetAdjustedTimeoutValue
                0x00000000       0x2c ./objects/rtc-board.o
 .text.BlockLowPowerDuringTask
                0x00000000        0x2 ./objects/rtc-board.o
 .text.RtcRecoverMcuStatus
                0x00000000        0x2 ./objects/rtc-board.o
 .text.RtcProcess
                0x00000000        0x2 ./objects/rtc-board.o
 .text          0x00000000        0x0 ./objects/sx1262-board.o
 .data          0x00000000        0x0 ./objects/sx1262-board.o
 .text.SX126xCheckRfFrequency
                0x00000000        0x4 ./objects/sx1262-board.o
 .text.SX126xGetPaOpt
                0x00000000        0xc ./objects/sx1262-board.o
 .text.SX126xSetPaOpt
                0x00000000       0x10 ./objects/sx1262-board.o
 .text          0x00000000        0x0 ./objects/utilities.o
 .bss           0x00000000        0x0 ./objects/utilities.o
 .text.Nibble2HexChar
                0x00000000       0x16 ./objects/utilities.o
 .text          0x00000000        0x0 ./objects/loramac.o
 .text.LoRaMacChannelAdd
                0x00000000       0x34 ./objects/loramac.o
 .text.LoRaMacChannelRemove
                0x00000000       0x34 ./objects/loramac.o
 .text.LoRaMacTestRxWindowsOn
                0x00000000        0xc ./objects/loramac.o
 .text.LoRaMacTestSetMic
                0x00000000       0x14 ./objects/loramac.o
 .text.LoRaMacTestSetDutyCycleOn
                0x00000000       0x24 ./objects/loramac.o
 .text.LoRaMacTestSetChannel
                0x00000000        0xc ./objects/loramac.o
 .text          0x00000000        0x0 ./objects/loramacclassb.o
 .data          0x00000000        0x0 ./objects/loramacclassb.o
 .bss           0x00000000        0x0 ./objects/loramacclassb.o
 .text.LoRaMacClassBIsAcquisitionPending
                0x00000000        0x4 ./objects/loramacclassb.o
 .text.LoRaMacClassBStop
                0x00000000        0x2 ./objects/loramacclassb.o
 .text.LoRaMacClassBStartRxSlots
                0x00000000        0x2 ./objects/loramacclassb.o
 .text          0x00000000        0x0 ./objects/loramacconfirmqueue.o
 .data          0x00000000        0x0 ./objects/loramacconfirmqueue.o
 .text          0x00000000        0x0 ./objects/loramaccrypto.o
 .text.LoRaMacBeaconComputePingOffset
                0x00000000       0x64 ./objects/loramaccrypto.o
 .text          0x00000000        0x0 ./objects/region.o
 .data          0x00000000        0x0 ./objects/region.o
 .bss           0x00000000        0x0 ./objects/region.o
 .text.RegionChannelAdd
                0x00000000        0xe ./objects/region.o
 .text.RegionChannelsRemove
                0x00000000        0xe ./objects/region.o
 .text.RegionRxBeaconSetup
                0x00000000       0x10 ./objects/region.o
 .text          0x00000000        0x0 ./objects/regioncommon.o
 .data          0x00000000        0x0 ./objects/regioncommon.o
 .bss           0x00000000        0x0 ./objects/regioncommon.o
 .text.RegionCommonChanDisable
                0x00000000       0x32 ./objects/regioncommon.o
 .text.RegionCommonComputeSymbolTimeFsk
                0x00000000       0x18 ./objects/regioncommon.o
 .text.RegionCommonRxBeaconSetup
                0x00000000       0x60 ./objects/regioncommon.o
 .text          0x00000000        0x0 ./objects/regioncn470.o
 .text.RegionCN470ChannelAdd
                0x00000000        0x4 ./objects/regioncn470.o
 .text.RegionCN470ChannelsRemove
                0x00000000        0x4 ./objects/regioncn470.o
 .text.RegionCN470RxBeaconSetup
                0x00000000       0x38 ./objects/regioncn470.o
 .data          0x00000000        0x0 ../../../drivers/crypto/lib/libcrypto.a(aes.o)
 .bss           0x00000000        0x0 ../../../drivers/crypto/lib/libcrypto.a(aes.o)
 .text          0x00000000        0x0 d:/program files/gnu arm embedded toolchain/9 2020-q2-update/bin/../lib/gcc/arm-none-eabi/9.3.1/../../../../arm-none-eabi/lib/thumb/v7e-m/nofp\libm.a(lib_a-s_ceil.o)
 .data          0x00000000        0x0 d:/program files/gnu arm embedded toolchain/9 2020-q2-update/bin/../lib/gcc/arm-none-eabi/9.3.1/../../../../arm-none-eabi/lib/thumb/v7e-m/nofp\libm.a(lib_a-s_ceil.o)
 .bss           0x00000000        0x0 d:/program files/gnu arm embedded toolchain/9 2020-q2-update/bin/../lib/gcc/arm-none-eabi/9.3.1/../../../../arm-none-eabi/lib/thumb/v7e-m/nofp\libm.a(lib_a-s_ceil.o)
 .text          0x00000000        0x0 d:/program files/gnu arm embedded toolchain/9 2020-q2-update/bin/../lib/gcc/arm-none-eabi/9.3.1/../../../../arm-none-eabi/lib/thumb/v7e-m/nofp\libm.a(lib_a-s_floor.o)
 .data          0x00000000        0x0 d:/program files/gnu arm embedded toolchain/9 2020-q2-update/bin/../lib/gcc/arm-none-eabi/9.3.1/../../../../arm-none-eabi/lib/thumb/v7e-m/nofp\libm.a(lib_a-s_floor.o)
 .bss           0x00000000        0x0 d:/program files/gnu arm embedded toolchain/9 2020-q2-update/bin/../lib/gcc/arm-none-eabi/9.3.1/../../../../arm-none-eabi/lib/thumb/v7e-m/nofp\libm.a(lib_a-s_floor.o)
 .text          0x00000000        0x0 d:/program files/gnu arm embedded toolchain/9 2020-q2-update/bin/../lib/gcc/arm-none-eabi/9.3.1/../../../../arm-none-eabi/lib/thumb/v7e-m/nofp\libm.a(lib_a-s_rint.o)
 .data          0x00000000        0x0 d:/program files/gnu arm embedded toolchain/9 2020-q2-update/bin/../lib/gcc/arm-none-eabi/9.3.1/../../../../arm-none-eabi/lib/thumb/v7e-m/nofp\libm.a(lib_a-s_rint.o)
 .bss           0x00000000        0x0 d:/program files/gnu arm embedded toolchain/9 2020-q2-update/bin/../lib/gcc/arm-none-eabi/9.3.1/../../../../arm-none-eabi/lib/thumb/v7e-m/nofp\libm.a(lib_a-s_rint.o)
 .text          0x00000000        0x0 d:/program files/gnu arm embedded toolchain/9 2020-q2-update/bin/../lib/gcc/arm-none-eabi/9.3.1/../../../../arm-none-eabi/lib/thumb/v7e-m/nofp\libm.a(lib_a-s_round.o)
 .data          0x00000000        0x0 d:/program files/gnu arm embedded toolchain/9 2020-q2-update/bin/../lib/gcc/arm-none-eabi/9.3.1/../../../../arm-none-eabi/lib/thumb/v7e-m/nofp\libm.a(lib_a-s_round.o)
 .bss           0x00000000        0x0 d:/program files/gnu arm embedded toolchain/9 2020-q2-update/bin/../lib/gcc/arm-none-eabi/9.3.1/../../../../arm-none-eabi/lib/thumb/v7e-m/nofp\libm.a(lib_a-s_round.o)
 .text          0x00000000        0x0 d:/program files/gnu arm embedded toolchain/9 2020-q2-update/bin/../lib/gcc/arm-none-eabi/9.3.1/../../../../arm-none-eabi/lib/thumb/v7e-m/nofp\libm.a(lib_a-w_pow.o)
 .data          0x00000000        0x0 d:/program files/gnu arm embedded toolchain/9 2020-q2-update/bin/../lib/gcc/arm-none-eabi/9.3.1/../../../../arm-none-eabi/lib/thumb/v7e-m/nofp\libm.a(lib_a-w_pow.o)
 .bss           0x00000000        0x0 d:/program files/gnu arm embedded toolchain/9 2020-q2-update/bin/../lib/gcc/arm-none-eabi/9.3.1/../../../../arm-none-eabi/lib/thumb/v7e-m/nofp\libm.a(lib_a-w_pow.o)
 .text          0x00000000        0x0 d:/program files/gnu arm embedded toolchain/9 2020-q2-update/bin/../lib/gcc/arm-none-eabi/9.3.1/../../../../arm-none-eabi/lib/thumb/v7e-m/nofp\libm.a(lib_a-e_pow.o)
 .data          0x00000000        0x0 d:/program files/gnu arm embedded toolchain/9 2020-q2-update/bin/../lib/gcc/arm-none-eabi/9.3.1/../../../../arm-none-eabi/lib/thumb/v7e-m/nofp\libm.a(lib_a-e_pow.o)
 .bss           0x00000000        0x0 d:/program files/gnu arm embedded toolchain/9 2020-q2-update/bin/../lib/gcc/arm-none-eabi/9.3.1/../../../../arm-none-eabi/lib/thumb/v7e-m/nofp\libm.a(lib_a-e_pow.o)
 .text          0x00000000        0x0 d:/program files/gnu arm embedded toolchain/9 2020-q2-update/bin/../lib/gcc/arm-none-eabi/9.3.1/../../../../arm-none-eabi/lib/thumb/v7e-m/nofp\libm.a(lib_a-e_sqrt.o)
 .data          0x00000000        0x0 d:/program files/gnu arm embedded toolchain/9 2020-q2-update/bin/../lib/gcc/arm-none-eabi/9.3.1/../../../../arm-none-eabi/lib/thumb/v7e-m/nofp\libm.a(lib_a-e_sqrt.o)
 .bss           0x00000000        0x0 d:/program files/gnu arm embedded toolchain/9 2020-q2-update/bin/../lib/gcc/arm-none-eabi/9.3.1/../../../../arm-none-eabi/lib/thumb/v7e-m/nofp\libm.a(lib_a-e_sqrt.o)
 .text          0x00000000        0x0 d:/program files/gnu arm embedded toolchain/9 2020-q2-update/bin/../lib/gcc/arm-none-eabi/9.3.1/../../../../arm-none-eabi/lib/thumb/v7e-m/nofp\libm.a(lib_a-s_fabs.o)
 .data          0x00000000        0x0 d:/program files/gnu arm embedded toolchain/9 2020-q2-update/bin/../lib/gcc/arm-none-eabi/9.3.1/../../../../arm-none-eabi/lib/thumb/v7e-m/nofp\libm.a(lib_a-s_fabs.o)
 .bss           0x00000000        0x0 d:/program files/gnu arm embedded toolchain/9 2020-q2-update/bin/../lib/gcc/arm-none-eabi/9.3.1/../../../../arm-none-eabi/lib/thumb/v7e-m/nofp\libm.a(lib_a-s_fabs.o)
 .text          0x00000000        0x0 d:/program files/gnu arm embedded toolchain/9 2020-q2-update/bin/../lib/gcc/arm-none-eabi/9.3.1/../../../../arm-none-eabi/lib/thumb/v7e-m/nofp\libm.a(lib_a-s_finite.o)
 .data          0x00000000        0x0 d:/program files/gnu arm embedded toolchain/9 2020-q2-update/bin/../lib/gcc/arm-none-eabi/9.3.1/../../../../arm-none-eabi/lib/thumb/v7e-m/nofp\libm.a(lib_a-s_finite.o)
 .bss           0x00000000        0x0 d:/program files/gnu arm embedded toolchain/9 2020-q2-update/bin/../lib/gcc/arm-none-eabi/9.3.1/../../../../arm-none-eabi/lib/thumb/v7e-m/nofp\libm.a(lib_a-s_finite.o)
 .text          0x00000000        0x0 d:/program files/gnu arm embedded toolchain/9 2020-q2-update/bin/../lib/gcc/arm-none-eabi/9.3.1/../../../../arm-none-eabi/lib/thumb/v7e-m/nofp\libm.a(lib_a-s_lib_ver.o)
 .data          0x00000000        0x0 d:/program files/gnu arm embedded toolchain/9 2020-q2-update/bin/../lib/gcc/arm-none-eabi/9.3.1/../../../../arm-none-eabi/lib/thumb/v7e-m/nofp\libm.a(lib_a-s_lib_ver.o)
 .bss           0x00000000        0x0 d:/program files/gnu arm embedded toolchain/9 2020-q2-update/bin/../lib/gcc/arm-none-eabi/9.3.1/../../../../arm-none-eabi/lib/thumb/v7e-m/nofp\libm.a(lib_a-s_lib_ver.o)
 .text          0x00000000        0x0 d:/program files/gnu arm embedded toolchain/9 2020-q2-update/bin/../lib/gcc/arm-none-eabi/9.3.1/../../../../arm-none-eabi/lib/thumb/v7e-m/nofp\libm.a(lib_a-s_nan.o)
 .data          0x00000000        0x0 d:/program files/gnu arm embedded toolchain/9 2020-q2-update/bin/../lib/gcc/arm-none-eabi/9.3.1/../../../../arm-none-eabi/lib/thumb/v7e-m/nofp\libm.a(lib_a-s_nan.o)
 .bss           0x00000000        0x0 d:/program files/gnu arm embedded toolchain/9 2020-q2-update/bin/../lib/gcc/arm-none-eabi/9.3.1/../../../../arm-none-eabi/lib/thumb/v7e-m/nofp\libm.a(lib_a-s_nan.o)
 .text          0x00000000        0x0 d:/program files/gnu arm embedded toolchain/9 2020-q2-update/bin/../lib/gcc/arm-none-eabi/9.3.1/../../../../arm-none-eabi/lib/thumb/v7e-m/nofp\libm.a(lib_a-s_scalbn.o)
 .data          0x00000000        0x0 d:/program files/gnu arm embedded toolchain/9 2020-q2-update/bin/../lib/gcc/arm-none-eabi/9.3.1/../../../../arm-none-eabi/lib/thumb/v7e-m/nofp\libm.a(lib_a-s_scalbn.o)
 .bss           0x00000000        0x0 d:/program files/gnu arm embedded toolchain/9 2020-q2-update/bin/../lib/gcc/arm-none-eabi/9.3.1/../../../../arm-none-eabi/lib/thumb/v7e-m/nofp\libm.a(lib_a-s_scalbn.o)
 .text          0x00000000      0x254 d:/program files/gnu arm embedded toolchain/9 2020-q2-update/bin/../lib/gcc/arm-none-eabi/9.3.1/thumb/v7e-m/nofp\libgcc.a(_arm_muldf3.o)
 .data          0x00000000        0x0 d:/program files/gnu arm embedded toolchain/9 2020-q2-update/bin/../lib/gcc/arm-none-eabi/9.3.1/thumb/v7e-m/nofp\libgcc.a(_arm_muldf3.o)
 .bss           0x00000000        0x0 d:/program files/gnu arm embedded toolchain/9 2020-q2-update/bin/../lib/gcc/arm-none-eabi/9.3.1/thumb/v7e-m/nofp\libgcc.a(_arm_muldf3.o)
 .debug_frame   0x00000000       0x30 d:/program files/gnu arm embedded toolchain/9 2020-q2-update/bin/../lib/gcc/arm-none-eabi/9.3.1/thumb/v7e-m/nofp\libgcc.a(_arm_muldf3.o)
 .ARM.attributes
                0x00000000       0x1e d:/program files/gnu arm embedded toolchain/9 2020-q2-update/bin/../lib/gcc/arm-none-eabi/9.3.1/thumb/v7e-m/nofp\libgcc.a(_arm_muldf3.o)
 .data          0x00000000        0x0 d:/program files/gnu arm embedded toolchain/9 2020-q2-update/bin/../lib/gcc/arm-none-eabi/9.3.1/thumb/v7e-m/nofp\libgcc.a(_arm_addsubdf3.o)
 .bss           0x00000000        0x0 d:/program files/gnu arm embedded toolchain/9 2020-q2-update/bin/../lib/gcc/arm-none-eabi/9.3.1/thumb/v7e-m/nofp\libgcc.a(_arm_addsubdf3.o)
 .data          0x00000000        0x0 d:/program files/gnu arm embedded toolchain/9 2020-q2-update/bin/../lib/gcc/arm-none-eabi/9.3.1/thumb/v7e-m/nofp\libgcc.a(_arm_muldivdf3.o)
 .bss           0x00000000        0x0 d:/program files/gnu arm embedded toolchain/9 2020-q2-update/bin/../lib/gcc/arm-none-eabi/9.3.1/thumb/v7e-m/nofp\libgcc.a(_arm_muldivdf3.o)
 .data          0x00000000        0x0 d:/program files/gnu arm embedded toolchain/9 2020-q2-update/bin/../lib/gcc/arm-none-eabi/9.3.1/thumb/v7e-m/nofp\libgcc.a(_arm_cmpdf2.o)
 .bss           0x00000000        0x0 d:/program files/gnu arm embedded toolchain/9 2020-q2-update/bin/../lib/gcc/arm-none-eabi/9.3.1/thumb/v7e-m/nofp\libgcc.a(_arm_cmpdf2.o)
 .data          0x00000000        0x0 d:/program files/gnu arm embedded toolchain/9 2020-q2-update/bin/../lib/gcc/arm-none-eabi/9.3.1/thumb/v7e-m/nofp\libgcc.a(_arm_unorddf2.o)
 .bss           0x00000000        0x0 d:/program files/gnu arm embedded toolchain/9 2020-q2-update/bin/../lib/gcc/arm-none-eabi/9.3.1/thumb/v7e-m/nofp\libgcc.a(_arm_unorddf2.o)
 .data          0x00000000        0x0 d:/program files/gnu arm embedded toolchain/9 2020-q2-update/bin/../lib/gcc/arm-none-eabi/9.3.1/thumb/v7e-m/nofp\libgcc.a(_arm_fixdfsi.o)
 .bss           0x00000000        0x0 d:/program files/gnu arm embedded toolchain/9 2020-q2-update/bin/../lib/gcc/arm-none-eabi/9.3.1/thumb/v7e-m/nofp\libgcc.a(_arm_fixdfsi.o)
 .data          0x00000000        0x0 d:/program files/gnu arm embedded toolchain/9 2020-q2-update/bin/../lib/gcc/arm-none-eabi/9.3.1/thumb/v7e-m/nofp\libgcc.a(_arm_fixunsdfsi.o)
 .bss           0x00000000        0x0 d:/program files/gnu arm embedded toolchain/9 2020-q2-update/bin/../lib/gcc/arm-none-eabi/9.3.1/thumb/v7e-m/nofp\libgcc.a(_arm_fixunsdfsi.o)
 .data          0x00000000        0x0 d:/program files/gnu arm embedded toolchain/9 2020-q2-update/bin/../lib/gcc/arm-none-eabi/9.3.1/thumb/v7e-m/nofp\libgcc.a(_aeabi_uldivmod.o)
 .bss           0x00000000        0x0 d:/program files/gnu arm embedded toolchain/9 2020-q2-update/bin/../lib/gcc/arm-none-eabi/9.3.1/thumb/v7e-m/nofp\libgcc.a(_aeabi_uldivmod.o)
 .data          0x00000000        0x0 d:/program files/gnu arm embedded toolchain/9 2020-q2-update/bin/../lib/gcc/arm-none-eabi/9.3.1/thumb/v7e-m/nofp\libgcc.a(_fixunsdfdi.o)
 .bss           0x00000000        0x0 d:/program files/gnu arm embedded toolchain/9 2020-q2-update/bin/../lib/gcc/arm-none-eabi/9.3.1/thumb/v7e-m/nofp\libgcc.a(_fixunsdfdi.o)
 .data          0x00000000        0x0 d:/program files/gnu arm embedded toolchain/9 2020-q2-update/bin/../lib/gcc/arm-none-eabi/9.3.1/thumb/v7e-m/nofp\libgcc.a(_udivmoddi4.o)
 .bss           0x00000000        0x0 d:/program files/gnu arm embedded toolchain/9 2020-q2-update/bin/../lib/gcc/arm-none-eabi/9.3.1/thumb/v7e-m/nofp\libgcc.a(_udivmoddi4.o)
 .ARM.extab     0x00000000        0x0 d:/program files/gnu arm embedded toolchain/9 2020-q2-update/bin/../lib/gcc/arm-none-eabi/9.3.1/thumb/v7e-m/nofp\libgcc.a(_udivmoddi4.o)
 .data          0x00000000        0x0 d:/program files/gnu arm embedded toolchain/9 2020-q2-update/bin/../lib/gcc/arm-none-eabi/9.3.1/thumb/v7e-m/nofp\libgcc.a(_dvmd_tls.o)
 .bss           0x00000000        0x0 d:/program files/gnu arm embedded toolchain/9 2020-q2-update/bin/../lib/gcc/arm-none-eabi/9.3.1/thumb/v7e-m/nofp\libgcc.a(_dvmd_tls.o)
 .text          0x00000000        0x0 d:/program files/gnu arm embedded toolchain/9 2020-q2-update/bin/../lib/gcc/arm-none-eabi/9.3.1/../../../../arm-none-eabi/lib/thumb/v7e-m/nofp\libc.a(lib_a-errno.o)
 .data          0x00000000        0x0 d:/program files/gnu arm embedded toolchain/9 2020-q2-update/bin/../lib/gcc/arm-none-eabi/9.3.1/../../../../arm-none-eabi/lib/thumb/v7e-m/nofp\libc.a(lib_a-errno.o)
 .bss           0x00000000        0x0 d:/program files/gnu arm embedded toolchain/9 2020-q2-update/bin/../lib/gcc/arm-none-eabi/9.3.1/../../../../arm-none-eabi/lib/thumb/v7e-m/nofp\libc.a(lib_a-errno.o)
 .text          0x00000000        0x0 d:/program files/gnu arm embedded toolchain/9 2020-q2-update/bin/../lib/gcc/arm-none-eabi/9.3.1/../../../../arm-none-eabi/lib/thumb/v7e-m/nofp\libc.a(lib_a-exit.o)
 .data          0x00000000        0x0 d:/program files/gnu arm embedded toolchain/9 2020-q2-update/bin/../lib/gcc/arm-none-eabi/9.3.1/../../../../arm-none-eabi/lib/thumb/v7e-m/nofp\libc.a(lib_a-exit.o)
 .bss           0x00000000        0x0 d:/program files/gnu arm embedded toolchain/9 2020-q2-update/bin/../lib/gcc/arm-none-eabi/9.3.1/../../../../arm-none-eabi/lib/thumb/v7e-m/nofp\libc.a(lib_a-exit.o)
 .text.exit     0x00000000       0x20 d:/program files/gnu arm embedded toolchain/9 2020-q2-update/bin/../lib/gcc/arm-none-eabi/9.3.1/../../../../arm-none-eabi/lib/thumb/v7e-m/nofp\libc.a(lib_a-exit.o)
 .debug_frame   0x00000000       0x28 d:/program files/gnu arm embedded toolchain/9 2020-q2-update/bin/../lib/gcc/arm-none-eabi/9.3.1/../../../../arm-none-eabi/lib/thumb/v7e-m/nofp\libc.a(lib_a-exit.o)
 .ARM.attributes
                0x00000000       0x2e d:/program files/gnu arm embedded toolchain/9 2020-q2-update/bin/../lib/gcc/arm-none-eabi/9.3.1/../../../../arm-none-eabi/lib/thumb/v7e-m/nofp\libc.a(lib_a-exit.o)
 .text          0x00000000        0x0 d:/program files/gnu arm embedded toolchain/9 2020-q2-update/bin/../lib/gcc/arm-none-eabi/9.3.1/../../../../arm-none-eabi/lib/thumb/v7e-m/nofp\libc.a(lib_a-impure.o)
 .data          0x00000000        0x0 d:/program files/gnu arm embedded toolchain/9 2020-q2-update/bin/../lib/gcc/arm-none-eabi/9.3.1/../../../../arm-none-eabi/lib/thumb/v7e-m/nofp\libc.a(lib_a-impure.o)
 .bss           0x00000000        0x0 d:/program files/gnu arm embedded toolchain/9 2020-q2-update/bin/../lib/gcc/arm-none-eabi/9.3.1/../../../../arm-none-eabi/lib/thumb/v7e-m/nofp\libc.a(lib_a-impure.o)
 .text          0x00000000        0x0 d:/program files/gnu arm embedded toolchain/9 2020-q2-update/bin/../lib/gcc/arm-none-eabi/9.3.1/../../../../arm-none-eabi/lib/thumb/v7e-m/nofp\libc.a(lib_a-init.o)
 .data          0x00000000        0x0 d:/program files/gnu arm embedded toolchain/9 2020-q2-update/bin/../lib/gcc/arm-none-eabi/9.3.1/../../../../arm-none-eabi/lib/thumb/v7e-m/nofp\libc.a(lib_a-init.o)
 .bss           0x00000000        0x0 d:/program files/gnu arm embedded toolchain/9 2020-q2-update/bin/../lib/gcc/arm-none-eabi/9.3.1/../../../../arm-none-eabi/lib/thumb/v7e-m/nofp\libc.a(lib_a-init.o)
 .data          0x00000000        0x0 d:/program files/gnu arm embedded toolchain/9 2020-q2-update/bin/../lib/gcc/arm-none-eabi/9.3.1/../../../../arm-none-eabi/lib/thumb/v7e-m/nofp\libc.a(lib_a-memcpy.o)
 .bss           0x00000000        0x0 d:/program files/gnu arm embedded toolchain/9 2020-q2-update/bin/../lib/gcc/arm-none-eabi/9.3.1/../../../../arm-none-eabi/lib/thumb/v7e-m/nofp\libc.a(lib_a-memcpy.o)
 .text          0x00000000        0x0 d:/program files/gnu arm embedded toolchain/9 2020-q2-update/bin/../lib/gcc/arm-none-eabi/9.3.1/../../../../arm-none-eabi/lib/thumb/v7e-m/nofp\libc.a(lib_a-memset.o)
 .data          0x00000000        0x0 d:/program files/gnu arm embedded toolchain/9 2020-q2-update/bin/../lib/gcc/arm-none-eabi/9.3.1/../../../../arm-none-eabi/lib/thumb/v7e-m/nofp\libc.a(lib_a-memset.o)
 .bss           0x00000000        0x0 d:/program files/gnu arm embedded toolchain/9 2020-q2-update/bin/../lib/gcc/arm-none-eabi/9.3.1/../../../../arm-none-eabi/lib/thumb/v7e-m/nofp\libc.a(lib_a-memset.o)
 .data          0x00000000        0x0 d:/program files/gnu arm embedded toolchain/9 2020-q2-update/bin/../lib/gcc/arm-none-eabi/9.3.1/../../../../arm-none-eabi/lib/thumb/v7e-m/nofp\libc.a(lib_a-strlen.o)
 .bss           0x00000000        0x0 d:/program files/gnu arm embedded toolchain/9 2020-q2-update/bin/../lib/gcc/arm-none-eabi/9.3.1/../../../../arm-none-eabi/lib/thumb/v7e-m/nofp\libc.a(lib_a-strlen.o)
 .text          0x00000000        0x0 d:/program files/gnu arm embedded toolchain/9 2020-q2-update/bin/../lib/gcc/arm-none-eabi/9.3.1/../../../../arm-none-eabi/lib/thumb/v7e-m/nofp\libc.a(lib_a-vsnprintf.o)
 .data          0x00000000        0x0 d:/program files/gnu arm embedded toolchain/9 2020-q2-update/bin/../lib/gcc/arm-none-eabi/9.3.1/../../../../arm-none-eabi/lib/thumb/v7e-m/nofp\libc.a(lib_a-vsnprintf.o)
 .bss           0x00000000        0x0 d:/program files/gnu arm embedded toolchain/9 2020-q2-update/bin/../lib/gcc/arm-none-eabi/9.3.1/../../../../arm-none-eabi/lib/thumb/v7e-m/nofp\libc.a(lib_a-vsnprintf.o)
 .text          0x00000000        0x0 d:/program files/gnu arm embedded toolchain/9 2020-q2-update/bin/../lib/gcc/arm-none-eabi/9.3.1/../../../../arm-none-eabi/lib/thumb/v7e-m/nofp\libc.a(lib_a-__call_atexit.o)
 .data          0x00000000        0x0 d:/program files/gnu arm embedded toolchain/9 2020-q2-update/bin/../lib/gcc/arm-none-eabi/9.3.1/../../../../arm-none-eabi/lib/thumb/v7e-m/nofp\libc.a(lib_a-__call_atexit.o)
 .bss           0x00000000        0x0 d:/program files/gnu arm embedded toolchain/9 2020-q2-update/bin/../lib/gcc/arm-none-eabi/9.3.1/../../../../arm-none-eabi/lib/thumb/v7e-m/nofp\libc.a(lib_a-__call_atexit.o)
 .text.__call_exitprocs
                0x00000000       0xc4 d:/program files/gnu arm embedded toolchain/9 2020-q2-update/bin/../lib/gcc/arm-none-eabi/9.3.1/../../../../arm-none-eabi/lib/thumb/v7e-m/nofp\libc.a(lib_a-__call_atexit.o)
 .text          0x00000000        0x0 d:/program files/gnu arm embedded toolchain/9 2020-q2-update/bin/../lib/gcc/arm-none-eabi/9.3.1/../../../../arm-none-eabi/lib/thumb/v7e-m/nofp\libc.a(lib_a-atexit.o)
 .data          0x00000000        0x0 d:/program files/gnu arm embedded toolchain/9 2020-q2-update/bin/../lib/gcc/arm-none-eabi/9.3.1/../../../../arm-none-eabi/lib/thumb/v7e-m/nofp\libc.a(lib_a-atexit.o)
 .bss           0x00000000        0x0 d:/program files/gnu arm embedded toolchain/9 2020-q2-update/bin/../lib/gcc/arm-none-eabi/9.3.1/../../../../arm-none-eabi/lib/thumb/v7e-m/nofp\libc.a(lib_a-atexit.o)
 .text          0x00000000        0x0 d:/program files/gnu arm embedded toolchain/9 2020-q2-update/bin/../lib/gcc/arm-none-eabi/9.3.1/../../../../arm-none-eabi/lib/thumb/v7e-m/nofp\libc.a(lib_a-fini.o)
 .data          0x00000000        0x0 d:/program files/gnu arm embedded toolchain/9 2020-q2-update/bin/../lib/gcc/arm-none-eabi/9.3.1/../../../../arm-none-eabi/lib/thumb/v7e-m/nofp\libc.a(lib_a-fini.o)
 .bss           0x00000000        0x0 d:/program files/gnu arm embedded toolchain/9 2020-q2-update/bin/../lib/gcc/arm-none-eabi/9.3.1/../../../../arm-none-eabi/lib/thumb/v7e-m/nofp\libc.a(lib_a-fini.o)
 .text          0x00000000        0x0 d:/program files/gnu arm embedded toolchain/9 2020-q2-update/bin/../lib/gcc/arm-none-eabi/9.3.1/../../../../arm-none-eabi/lib/thumb/v7e-m/nofp\libc.a(lib_a-lock.o)
 .data          0x00000000        0x0 d:/program files/gnu arm embedded toolchain/9 2020-q2-update/bin/../lib/gcc/arm-none-eabi/9.3.1/../../../../arm-none-eabi/lib/thumb/v7e-m/nofp\libc.a(lib_a-lock.o)
 .bss           0x00000000        0x0 d:/program files/gnu arm embedded toolchain/9 2020-q2-update/bin/../lib/gcc/arm-none-eabi/9.3.1/../../../../arm-none-eabi/lib/thumb/v7e-m/nofp\libc.a(lib_a-lock.o)
 .text.__retarget_lock_init
                0x00000000        0x4 d:/program files/gnu arm embedded toolchain/9 2020-q2-update/bin/../lib/gcc/arm-none-eabi/9.3.1/../../../../arm-none-eabi/lib/thumb/v7e-m/nofp\libc.a(lib_a-lock.o)
 .text.__retarget_lock_close
                0x00000000        0x4 d:/program files/gnu arm embedded toolchain/9 2020-q2-update/bin/../lib/gcc/arm-none-eabi/9.3.1/../../../../arm-none-eabi/lib/thumb/v7e-m/nofp\libc.a(lib_a-lock.o)
 .text.__retarget_lock_acquire
                0x00000000        0x4 d:/program files/gnu arm embedded toolchain/9 2020-q2-update/bin/../lib/gcc/arm-none-eabi/9.3.1/../../../../arm-none-eabi/lib/thumb/v7e-m/nofp\libc.a(lib_a-lock.o)
 .text.__retarget_lock_try_acquire
                0x00000000        0x4 d:/program files/gnu arm embedded toolchain/9 2020-q2-update/bin/../lib/gcc/arm-none-eabi/9.3.1/../../../../arm-none-eabi/lib/thumb/v7e-m/nofp\libc.a(lib_a-lock.o)
 .text.__retarget_lock_try_acquire_recursive
                0x00000000        0x4 d:/program files/gnu arm embedded toolchain/9 2020-q2-update/bin/../lib/gcc/arm-none-eabi/9.3.1/../../../../arm-none-eabi/lib/thumb/v7e-m/nofp\libc.a(lib_a-lock.o)
 .text.__retarget_lock_release
                0x00000000        0x4 d:/program files/gnu arm embedded toolchain/9 2020-q2-update/bin/../lib/gcc/arm-none-eabi/9.3.1/../../../../arm-none-eabi/lib/thumb/v7e-m/nofp\libc.a(lib_a-lock.o)
 .text          0x00000000        0x0 d:/program files/gnu arm embedded toolchain/9 2020-q2-update/bin/../lib/gcc/arm-none-eabi/9.3.1/../../../../arm-none-eabi/lib/thumb/v7e-m/nofp\libc.a(lib_a-svfprintf.o)
 .data          0x00000000        0x0 d:/program files/gnu arm embedded toolchain/9 2020-q2-update/bin/../lib/gcc/arm-none-eabi/9.3.1/../../../../arm-none-eabi/lib/thumb/v7e-m/nofp\libc.a(lib_a-svfprintf.o)
 .bss           0x00000000        0x0 d:/program files/gnu arm embedded toolchain/9 2020-q2-update/bin/../lib/gcc/arm-none-eabi/9.3.1/../../../../arm-none-eabi/lib/thumb/v7e-m/nofp\libc.a(lib_a-svfprintf.o)
 .text          0x00000000        0x0 d:/program files/gnu arm embedded toolchain/9 2020-q2-update/bin/../lib/gcc/arm-none-eabi/9.3.1/../../../../arm-none-eabi/lib/thumb/v7e-m/nofp\libc.a(lib_a-__atexit.o)
 .data          0x00000000        0x0 d:/program files/gnu arm embedded toolchain/9 2020-q2-update/bin/../lib/gcc/arm-none-eabi/9.3.1/../../../../arm-none-eabi/lib/thumb/v7e-m/nofp\libc.a(lib_a-__atexit.o)
 .bss           0x00000000        0x0 d:/program files/gnu arm embedded toolchain/9 2020-q2-update/bin/../lib/gcc/arm-none-eabi/9.3.1/../../../../arm-none-eabi/lib/thumb/v7e-m/nofp\libc.a(lib_a-__atexit.o)
 .text          0x00000000        0x0 d:/program files/gnu arm embedded toolchain/9 2020-q2-update/bin/../lib/gcc/arm-none-eabi/9.3.1/../../../../arm-none-eabi/lib/thumb/v7e-m/nofp\libc.a(lib_a-dtoa.o)
 .data          0x00000000        0x0 d:/program files/gnu arm embedded toolchain/9 2020-q2-update/bin/../lib/gcc/arm-none-eabi/9.3.1/../../../../arm-none-eabi/lib/thumb/v7e-m/nofp\libc.a(lib_a-dtoa.o)
 .bss           0x00000000        0x0 d:/program files/gnu arm embedded toolchain/9 2020-q2-update/bin/../lib/gcc/arm-none-eabi/9.3.1/../../../../arm-none-eabi/lib/thumb/v7e-m/nofp\libc.a(lib_a-dtoa.o)
 .text          0x00000000        0x0 d:/program files/gnu arm embedded toolchain/9 2020-q2-update/bin/../lib/gcc/arm-none-eabi/9.3.1/../../../../arm-none-eabi/lib/thumb/v7e-m/nofp\libc.a(lib_a-freer.o)
 .data          0x00000000        0x0 d:/program files/gnu arm embedded toolchain/9 2020-q2-update/bin/../lib/gcc/arm-none-eabi/9.3.1/../../../../arm-none-eabi/lib/thumb/v7e-m/nofp\libc.a(lib_a-freer.o)
 .bss           0x00000000        0x0 d:/program files/gnu arm embedded toolchain/9 2020-q2-update/bin/../lib/gcc/arm-none-eabi/9.3.1/../../../../arm-none-eabi/lib/thumb/v7e-m/nofp\libc.a(lib_a-freer.o)
 .text          0x00000000        0x0 d:/program files/gnu arm embedded toolchain/9 2020-q2-update/bin/../lib/gcc/arm-none-eabi/9.3.1/../../../../arm-none-eabi/lib/thumb/v7e-m/nofp\libc.a(lib_a-localeconv.o)
 .data          0x00000000        0x0 d:/program files/gnu arm embedded toolchain/9 2020-q2-update/bin/../lib/gcc/arm-none-eabi/9.3.1/../../../../arm-none-eabi/lib/thumb/v7e-m/nofp\libc.a(lib_a-localeconv.o)
 .bss           0x00000000        0x0 d:/program files/gnu arm embedded toolchain/9 2020-q2-update/bin/../lib/gcc/arm-none-eabi/9.3.1/../../../../arm-none-eabi/lib/thumb/v7e-m/nofp\libc.a(lib_a-localeconv.o)
 .text.__localeconv_l
                0x00000000        0x4 d:/program files/gnu arm embedded toolchain/9 2020-q2-update/bin/../lib/gcc/arm-none-eabi/9.3.1/../../../../arm-none-eabi/lib/thumb/v7e-m/nofp\libc.a(lib_a-localeconv.o)
 .text.localeconv
                0x00000000        0x8 d:/program files/gnu arm embedded toolchain/9 2020-q2-update/bin/../lib/gcc/arm-none-eabi/9.3.1/../../../../arm-none-eabi/lib/thumb/v7e-m/nofp\libc.a(lib_a-localeconv.o)
 .text          0x00000000        0x0 d:/program files/gnu arm embedded toolchain/9 2020-q2-update/bin/../lib/gcc/arm-none-eabi/9.3.1/../../../../arm-none-eabi/lib/thumb/v7e-m/nofp\libc.a(lib_a-mallocr.o)
 .data          0x00000000        0x0 d:/program files/gnu arm embedded toolchain/9 2020-q2-update/bin/../lib/gcc/arm-none-eabi/9.3.1/../../../../arm-none-eabi/lib/thumb/v7e-m/nofp\libc.a(lib_a-mallocr.o)
 .bss           0x00000000        0x0 d:/program files/gnu arm embedded toolchain/9 2020-q2-update/bin/../lib/gcc/arm-none-eabi/9.3.1/../../../../arm-none-eabi/lib/thumb/v7e-m/nofp\libc.a(lib_a-mallocr.o)
 .data          0x00000000        0x0 d:/program files/gnu arm embedded toolchain/9 2020-q2-update/bin/../lib/gcc/arm-none-eabi/9.3.1/../../../../arm-none-eabi/lib/thumb/v7e-m/nofp\libc.a(lib_a-memchr.o)
 .bss           0x00000000        0x0 d:/program files/gnu arm embedded toolchain/9 2020-q2-update/bin/../lib/gcc/arm-none-eabi/9.3.1/../../../../arm-none-eabi/lib/thumb/v7e-m/nofp\libc.a(lib_a-memchr.o)
 .text          0x00000000        0x0 d:/program files/gnu arm embedded toolchain/9 2020-q2-update/bin/../lib/gcc/arm-none-eabi/9.3.1/../../../../arm-none-eabi/lib/thumb/v7e-m/nofp\libc.a(lib_a-mlock.o)
 .data          0x00000000        0x0 d:/program files/gnu arm embedded toolchain/9 2020-q2-update/bin/../lib/gcc/arm-none-eabi/9.3.1/../../../../arm-none-eabi/lib/thumb/v7e-m/nofp\libc.a(lib_a-mlock.o)
 .bss           0x00000000        0x0 d:/program files/gnu arm embedded toolchain/9 2020-q2-update/bin/../lib/gcc/arm-none-eabi/9.3.1/../../../../arm-none-eabi/lib/thumb/v7e-m/nofp\libc.a(lib_a-mlock.o)
 .text          0x00000000        0x0 d:/program files/gnu arm embedded toolchain/9 2020-q2-update/bin/../lib/gcc/arm-none-eabi/9.3.1/../../../../arm-none-eabi/lib/thumb/v7e-m/nofp\libc.a(lib_a-mprec.o)
 .data          0x00000000        0x0 d:/program files/gnu arm embedded toolchain/9 2020-q2-update/bin/../lib/gcc/arm-none-eabi/9.3.1/../../../../arm-none-eabi/lib/thumb/v7e-m/nofp\libc.a(lib_a-mprec.o)
 .bss           0x00000000        0x0 d:/program files/gnu arm embedded toolchain/9 2020-q2-update/bin/../lib/gcc/arm-none-eabi/9.3.1/../../../../arm-none-eabi/lib/thumb/v7e-m/nofp\libc.a(lib_a-mprec.o)
 .text.__s2b    0x00000000       0xb4 d:/program files/gnu arm embedded toolchain/9 2020-q2-update/bin/../lib/gcc/arm-none-eabi/9.3.1/../../../../arm-none-eabi/lib/thumb/v7e-m/nofp\libc.a(lib_a-mprec.o)
 .text.__ulp    0x00000000       0x44 d:/program files/gnu arm embedded toolchain/9 2020-q2-update/bin/../lib/gcc/arm-none-eabi/9.3.1/../../../../arm-none-eabi/lib/thumb/v7e-m/nofp\libc.a(lib_a-mprec.o)
 .text.__b2d    0x00000000       0xcc d:/program files/gnu arm embedded toolchain/9 2020-q2-update/bin/../lib/gcc/arm-none-eabi/9.3.1/../../../../arm-none-eabi/lib/thumb/v7e-m/nofp\libc.a(lib_a-mprec.o)
 .text.__ratio  0x00000000       0x60 d:/program files/gnu arm embedded toolchain/9 2020-q2-update/bin/../lib/gcc/arm-none-eabi/9.3.1/../../../../arm-none-eabi/lib/thumb/v7e-m/nofp\libc.a(lib_a-mprec.o)
 .text._mprec_log10
                0x00000000       0x38 d:/program files/gnu arm embedded toolchain/9 2020-q2-update/bin/../lib/gcc/arm-none-eabi/9.3.1/../../../../arm-none-eabi/lib/thumb/v7e-m/nofp\libc.a(lib_a-mprec.o)
 .text.__copybits
                0x00000000       0x48 d:/program files/gnu arm embedded toolchain/9 2020-q2-update/bin/../lib/gcc/arm-none-eabi/9.3.1/../../../../arm-none-eabi/lib/thumb/v7e-m/nofp\libc.a(lib_a-mprec.o)
 .text.__any_on
                0x00000000       0x60 d:/program files/gnu arm embedded toolchain/9 2020-q2-update/bin/../lib/gcc/arm-none-eabi/9.3.1/../../../../arm-none-eabi/lib/thumb/v7e-m/nofp\libc.a(lib_a-mprec.o)
 .rodata.__mprec_tinytens
                0x00000000       0x28 d:/program files/gnu arm embedded toolchain/9 2020-q2-update/bin/../lib/gcc/arm-none-eabi/9.3.1/../../../../arm-none-eabi/lib/thumb/v7e-m/nofp\libc.a(lib_a-mprec.o)
 .text          0x00000000        0x0 d:/program files/gnu arm embedded toolchain/9 2020-q2-update/bin/../lib/gcc/arm-none-eabi/9.3.1/../../../../arm-none-eabi/lib/thumb/v7e-m/nofp\libc.a(lib_a-s_frexp.o)
 .data          0x00000000        0x0 d:/program files/gnu arm embedded toolchain/9 2020-q2-update/bin/../lib/gcc/arm-none-eabi/9.3.1/../../../../arm-none-eabi/lib/thumb/v7e-m/nofp\libc.a(lib_a-s_frexp.o)
 .bss           0x00000000        0x0 d:/program files/gnu arm embedded toolchain/9 2020-q2-update/bin/../lib/gcc/arm-none-eabi/9.3.1/../../../../arm-none-eabi/lib/thumb/v7e-m/nofp\libc.a(lib_a-s_frexp.o)
 .text          0x00000000        0x0 d:/program files/gnu arm embedded toolchain/9 2020-q2-update/bin/../lib/gcc/arm-none-eabi/9.3.1/../../../../arm-none-eabi/lib/thumb/v7e-m/nofp\libc.a(lib_a-sbrkr.o)
 .data          0x00000000        0x0 d:/program files/gnu arm embedded toolchain/9 2020-q2-update/bin/../lib/gcc/arm-none-eabi/9.3.1/../../../../arm-none-eabi/lib/thumb/v7e-m/nofp\libc.a(lib_a-sbrkr.o)
 .bss           0x00000000        0x0 d:/program files/gnu arm embedded toolchain/9 2020-q2-update/bin/../lib/gcc/arm-none-eabi/9.3.1/../../../../arm-none-eabi/lib/thumb/v7e-m/nofp\libc.a(lib_a-sbrkr.o)
 .text          0x00000000        0x0 d:/program files/gnu arm embedded toolchain/9 2020-q2-update/bin/../lib/gcc/arm-none-eabi/9.3.1/../../../../arm-none-eabi/lib/thumb/v7e-m/nofp\libc.a(lib_a-strncpy.o)
 .data          0x00000000        0x0 d:/program files/gnu arm embedded toolchain/9 2020-q2-update/bin/../lib/gcc/arm-none-eabi/9.3.1/../../../../arm-none-eabi/lib/thumb/v7e-m/nofp\libc.a(lib_a-strncpy.o)
 .bss           0x00000000        0x0 d:/program files/gnu arm embedded toolchain/9 2020-q2-update/bin/../lib/gcc/arm-none-eabi/9.3.1/../../../../arm-none-eabi/lib/thumb/v7e-m/nofp\libc.a(lib_a-strncpy.o)
 .text          0x00000000        0x0 d:/program files/gnu arm embedded toolchain/9 2020-q2-update/bin/../lib/gcc/arm-none-eabi/9.3.1/../../../../arm-none-eabi/lib/thumb/v7e-m/nofp\libc.a(lib_a-svfiprintf.o)
 .data          0x00000000        0x0 d:/program files/gnu arm embedded toolchain/9 2020-q2-update/bin/../lib/gcc/arm-none-eabi/9.3.1/../../../../arm-none-eabi/lib/thumb/v7e-m/nofp\libc.a(lib_a-svfiprintf.o)
 .bss           0x00000000        0x0 d:/program files/gnu arm embedded toolchain/9 2020-q2-update/bin/../lib/gcc/arm-none-eabi/9.3.1/../../../../arm-none-eabi/lib/thumb/v7e-m/nofp\libc.a(lib_a-svfiprintf.o)
 .rodata._svfiprintf_r.str1.4
                0x00000000       0x2f d:/program files/gnu arm embedded toolchain/9 2020-q2-update/bin/../lib/gcc/arm-none-eabi/9.3.1/../../../../arm-none-eabi/lib/thumb/v7e-m/nofp\libc.a(lib_a-svfiprintf.o)
 .text._svfiprintf_r
                0x00000000      0xb14 d:/program files/gnu arm embedded toolchain/9 2020-q2-update/bin/../lib/gcc/arm-none-eabi/9.3.1/../../../../arm-none-eabi/lib/thumb/v7e-m/nofp\libc.a(lib_a-svfiprintf.o)
 .rodata.blanks.7314
                0x00000000       0x10 d:/program files/gnu arm embedded toolchain/9 2020-q2-update/bin/../lib/gcc/arm-none-eabi/9.3.1/../../../../arm-none-eabi/lib/thumb/v7e-m/nofp\libc.a(lib_a-svfiprintf.o)
 .rodata.zeroes.7315
                0x00000000       0x10 d:/program files/gnu arm embedded toolchain/9 2020-q2-update/bin/../lib/gcc/arm-none-eabi/9.3.1/../../../../arm-none-eabi/lib/thumb/v7e-m/nofp\libc.a(lib_a-svfiprintf.o)
 .text          0x00000000        0x0 d:/program files/gnu arm embedded toolchain/9 2020-q2-update/bin/../lib/gcc/arm-none-eabi/9.3.1/../../../../arm-none-eabi/lib/thumb/v7e-m/nofp\libc.a(lib_a-assert.o)
 .data          0x00000000        0x0 d:/program files/gnu arm embedded toolchain/9 2020-q2-update/bin/../lib/gcc/arm-none-eabi/9.3.1/../../../../arm-none-eabi/lib/thumb/v7e-m/nofp\libc.a(lib_a-assert.o)
 .bss           0x00000000        0x0 d:/program files/gnu arm embedded toolchain/9 2020-q2-update/bin/../lib/gcc/arm-none-eabi/9.3.1/../../../../arm-none-eabi/lib/thumb/v7e-m/nofp\libc.a(lib_a-assert.o)
 .text.__assert
                0x00000000        0xc d:/program files/gnu arm embedded toolchain/9 2020-q2-update/bin/../lib/gcc/arm-none-eabi/9.3.1/../../../../arm-none-eabi/lib/thumb/v7e-m/nofp\libc.a(lib_a-assert.o)
 .text          0x00000000        0x0 d:/program files/gnu arm embedded toolchain/9 2020-q2-update/bin/../lib/gcc/arm-none-eabi/9.3.1/../../../../arm-none-eabi/lib/thumb/v7e-m/nofp\libc.a(lib_a-callocr.o)
 .data          0x00000000        0x0 d:/program files/gnu arm embedded toolchain/9 2020-q2-update/bin/../lib/gcc/arm-none-eabi/9.3.1/../../../../arm-none-eabi/lib/thumb/v7e-m/nofp\libc.a(lib_a-callocr.o)
 .bss           0x00000000        0x0 d:/program files/gnu arm embedded toolchain/9 2020-q2-update/bin/../lib/gcc/arm-none-eabi/9.3.1/../../../../arm-none-eabi/lib/thumb/v7e-m/nofp\libc.a(lib_a-callocr.o)
 .text          0x00000000        0x0 d:/program files/gnu arm embedded toolchain/9 2020-q2-update/bin/../lib/gcc/arm-none-eabi/9.3.1/../../../../arm-none-eabi/lib/thumb/v7e-m/nofp\libc.a(lib_a-fiprintf.o)
 .data          0x00000000        0x0 d:/program files/gnu arm embedded toolchain/9 2020-q2-update/bin/../lib/gcc/arm-none-eabi/9.3.1/../../../../arm-none-eabi/lib/thumb/v7e-m/nofp\libc.a(lib_a-fiprintf.o)
 .bss           0x00000000        0x0 d:/program files/gnu arm embedded toolchain/9 2020-q2-update/bin/../lib/gcc/arm-none-eabi/9.3.1/../../../../arm-none-eabi/lib/thumb/v7e-m/nofp\libc.a(lib_a-fiprintf.o)
 .text._fiprintf_r
                0x00000000       0x1c d:/program files/gnu arm embedded toolchain/9 2020-q2-update/bin/../lib/gcc/arm-none-eabi/9.3.1/../../../../arm-none-eabi/lib/thumb/v7e-m/nofp\libc.a(lib_a-fiprintf.o)
 .text          0x00000000        0x0 d:/program files/gnu arm embedded toolchain/9 2020-q2-update/bin/../lib/gcc/arm-none-eabi/9.3.1/../../../../arm-none-eabi/lib/thumb/v7e-m/nofp\libc.a(lib_a-locale.o)
 .data          0x00000000        0x0 d:/program files/gnu arm embedded toolchain/9 2020-q2-update/bin/../lib/gcc/arm-none-eabi/9.3.1/../../../../arm-none-eabi/lib/thumb/v7e-m/nofp\libc.a(lib_a-locale.o)
 .bss           0x00000000        0x0 d:/program files/gnu arm embedded toolchain/9 2020-q2-update/bin/../lib/gcc/arm-none-eabi/9.3.1/../../../../arm-none-eabi/lib/thumb/v7e-m/nofp\libc.a(lib_a-locale.o)
 .text._setlocale_r
                0x00000000       0x40 d:/program files/gnu arm embedded toolchain/9 2020-q2-update/bin/../lib/gcc/arm-none-eabi/9.3.1/../../../../arm-none-eabi/lib/thumb/v7e-m/nofp\libc.a(lib_a-locale.o)
 .text.setlocale
                0x00000000       0x10 d:/program files/gnu arm embedded toolchain/9 2020-q2-update/bin/../lib/gcc/arm-none-eabi/9.3.1/../../../../arm-none-eabi/lib/thumb/v7e-m/nofp\libc.a(lib_a-locale.o)
 .bss._PathLocale
                0x00000000        0x4 d:/program files/gnu arm embedded toolchain/9 2020-q2-update/bin/../lib/gcc/arm-none-eabi/9.3.1/../../../../arm-none-eabi/lib/thumb/v7e-m/nofp\libc.a(lib_a-locale.o)
 .text          0x00000000        0x0 d:/program files/gnu arm embedded toolchain/9 2020-q2-update/bin/../lib/gcc/arm-none-eabi/9.3.1/../../../../arm-none-eabi/lib/thumb/v7e-m/nofp\libc.a(lib_a-mbtowc_r.o)
 .data          0x00000000        0x0 d:/program files/gnu arm embedded toolchain/9 2020-q2-update/bin/../lib/gcc/arm-none-eabi/9.3.1/../../../../arm-none-eabi/lib/thumb/v7e-m/nofp\libc.a(lib_a-mbtowc_r.o)
 .bss           0x00000000        0x0 d:/program files/gnu arm embedded toolchain/9 2020-q2-update/bin/../lib/gcc/arm-none-eabi/9.3.1/../../../../arm-none-eabi/lib/thumb/v7e-m/nofp\libc.a(lib_a-mbtowc_r.o)
 .text._mbtowc_r
                0x00000000       0x14 d:/program files/gnu arm embedded toolchain/9 2020-q2-update/bin/../lib/gcc/arm-none-eabi/9.3.1/../../../../arm-none-eabi/lib/thumb/v7e-m/nofp\libc.a(lib_a-mbtowc_r.o)
 .text          0x00000000        0x0 d:/program files/gnu arm embedded toolchain/9 2020-q2-update/bin/../lib/gcc/arm-none-eabi/9.3.1/../../../../arm-none-eabi/lib/thumb/v7e-m/nofp\libc.a(lib_a-memmove.o)
 .data          0x00000000        0x0 d:/program files/gnu arm embedded toolchain/9 2020-q2-update/bin/../lib/gcc/arm-none-eabi/9.3.1/../../../../arm-none-eabi/lib/thumb/v7e-m/nofp\libc.a(lib_a-memmove.o)
 .bss           0x00000000        0x0 d:/program files/gnu arm embedded toolchain/9 2020-q2-update/bin/../lib/gcc/arm-none-eabi/9.3.1/../../../../arm-none-eabi/lib/thumb/v7e-m/nofp\libc.a(lib_a-memmove.o)
 .text          0x00000000        0x0 d:/program files/gnu arm embedded toolchain/9 2020-q2-update/bin/../lib/gcc/arm-none-eabi/9.3.1/../../../../arm-none-eabi/lib/thumb/v7e-m/nofp\libc.a(lib_a-reallocr.o)
 .data          0x00000000        0x0 d:/program files/gnu arm embedded toolchain/9 2020-q2-update/bin/../lib/gcc/arm-none-eabi/9.3.1/../../../../arm-none-eabi/lib/thumb/v7e-m/nofp\libc.a(lib_a-reallocr.o)
 .bss           0x00000000        0x0 d:/program files/gnu arm embedded toolchain/9 2020-q2-update/bin/../lib/gcc/arm-none-eabi/9.3.1/../../../../arm-none-eabi/lib/thumb/v7e-m/nofp\libc.a(lib_a-reallocr.o)
 .text          0x00000000        0x0 d:/program files/gnu arm embedded toolchain/9 2020-q2-update/bin/../lib/gcc/arm-none-eabi/9.3.1/../../../../arm-none-eabi/lib/thumb/v7e-m/nofp\libc.a(lib_a-reent.o)
 .data          0x00000000        0x0 d:/program files/gnu arm embedded toolchain/9 2020-q2-update/bin/../lib/gcc/arm-none-eabi/9.3.1/../../../../arm-none-eabi/lib/thumb/v7e-m/nofp\libc.a(lib_a-reent.o)
 .bss           0x00000000        0x0 d:/program files/gnu arm embedded toolchain/9 2020-q2-update/bin/../lib/gcc/arm-none-eabi/9.3.1/../../../../arm-none-eabi/lib/thumb/v7e-m/nofp\libc.a(lib_a-reent.o)
 .text.cleanup_glue
                0x00000000       0x1c d:/program files/gnu arm embedded toolchain/9 2020-q2-update/bin/../lib/gcc/arm-none-eabi/9.3.1/../../../../arm-none-eabi/lib/thumb/v7e-m/nofp\libc.a(lib_a-reent.o)
 .text._reclaim_reent
                0x00000000       0x84 d:/program files/gnu arm embedded toolchain/9 2020-q2-update/bin/../lib/gcc/arm-none-eabi/9.3.1/../../../../arm-none-eabi/lib/thumb/v7e-m/nofp\libc.a(lib_a-reent.o)
 .text          0x00000000      0x2dc d:/program files/gnu arm embedded toolchain/9 2020-q2-update/bin/../lib/gcc/arm-none-eabi/9.3.1/../../../../arm-none-eabi/lib/thumb/v7e-m/nofp\libc.a(lib_a-strcmp.o)
 .data          0x00000000        0x0 d:/program files/gnu arm embedded toolchain/9 2020-q2-update/bin/../lib/gcc/arm-none-eabi/9.3.1/../../../../arm-none-eabi/lib/thumb/v7e-m/nofp\libc.a(lib_a-strcmp.o)
 .bss           0x00000000        0x0 d:/program files/gnu arm embedded toolchain/9 2020-q2-update/bin/../lib/gcc/arm-none-eabi/9.3.1/../../../../arm-none-eabi/lib/thumb/v7e-m/nofp\libc.a(lib_a-strcmp.o)
 .debug_frame   0x00000000       0x68 d:/program files/gnu arm embedded toolchain/9 2020-q2-update/bin/../lib/gcc/arm-none-eabi/9.3.1/../../../../arm-none-eabi/lib/thumb/v7e-m/nofp\libc.a(lib_a-strcmp.o)
 .ARM.attributes
                0x00000000       0x1c d:/program files/gnu arm embedded toolchain/9 2020-q2-update/bin/../lib/gcc/arm-none-eabi/9.3.1/../../../../arm-none-eabi/lib/thumb/v7e-m/nofp\libc.a(lib_a-strcmp.o)
 .text          0x00000000        0x0 d:/program files/gnu arm embedded toolchain/9 2020-q2-update/bin/../lib/gcc/arm-none-eabi/9.3.1/../../../../arm-none-eabi/lib/thumb/v7e-m/nofp\libc.a(lib_a-vfiprintf.o)
 .data          0x00000000        0x0 d:/program files/gnu arm embedded toolchain/9 2020-q2-update/bin/../lib/gcc/arm-none-eabi/9.3.1/../../../../arm-none-eabi/lib/thumb/v7e-m/nofp\libc.a(lib_a-vfiprintf.o)
 .bss           0x00000000        0x0 d:/program files/gnu arm embedded toolchain/9 2020-q2-update/bin/../lib/gcc/arm-none-eabi/9.3.1/../../../../arm-none-eabi/lib/thumb/v7e-m/nofp\libc.a(lib_a-vfiprintf.o)
 .text.__sprint_r
                0x00000000       0x14 d:/program files/gnu arm embedded toolchain/9 2020-q2-update/bin/../lib/gcc/arm-none-eabi/9.3.1/../../../../arm-none-eabi/lib/thumb/v7e-m/nofp\libc.a(lib_a-vfiprintf.o)
 .text.vfiprintf
                0x00000000       0x18 d:/program files/gnu arm embedded toolchain/9 2020-q2-update/bin/../lib/gcc/arm-none-eabi/9.3.1/../../../../arm-none-eabi/lib/thumb/v7e-m/nofp\libc.a(lib_a-vfiprintf.o)
 .text          0x00000000        0x0 d:/program files/gnu arm embedded toolchain/9 2020-q2-update/bin/../lib/gcc/arm-none-eabi/9.3.1/../../../../arm-none-eabi/lib/thumb/v7e-m/nofp\libc.a(lib_a-wctomb_r.o)
 .data          0x00000000        0x0 d:/program files/gnu arm embedded toolchain/9 2020-q2-update/bin/../lib/gcc/arm-none-eabi/9.3.1/../../../../arm-none-eabi/lib/thumb/v7e-m/nofp\libc.a(lib_a-wctomb_r.o)
 .bss           0x00000000        0x0 d:/program files/gnu arm embedded toolchain/9 2020-q2-update/bin/../lib/gcc/arm-none-eabi/9.3.1/../../../../arm-none-eabi/lib/thumb/v7e-m/nofp\libc.a(lib_a-wctomb_r.o)
 .text._wctomb_r
                0x00000000       0x14 d:/program files/gnu arm embedded toolchain/9 2020-q2-update/bin/../lib/gcc/arm-none-eabi/9.3.1/../../../../arm-none-eabi/lib/thumb/v7e-m/nofp\libc.a(lib_a-wctomb_r.o)
 .text          0x00000000        0x0 d:/program files/gnu arm embedded toolchain/9 2020-q2-update/bin/../lib/gcc/arm-none-eabi/9.3.1/../../../../arm-none-eabi/lib/thumb/v7e-m/nofp\libc.a(lib_a-wsetup.o)
 .data          0x00000000        0x0 d:/program files/gnu arm embedded toolchain/9 2020-q2-update/bin/../lib/gcc/arm-none-eabi/9.3.1/../../../../arm-none-eabi/lib/thumb/v7e-m/nofp\libc.a(lib_a-wsetup.o)
 .bss           0x00000000        0x0 d:/program files/gnu arm embedded toolchain/9 2020-q2-update/bin/../lib/gcc/arm-none-eabi/9.3.1/../../../../arm-none-eabi/lib/thumb/v7e-m/nofp\libc.a(lib_a-wsetup.o)
 .text          0x00000000        0x0 d:/program files/gnu arm embedded toolchain/9 2020-q2-update/bin/../lib/gcc/arm-none-eabi/9.3.1/../../../../arm-none-eabi/lib/thumb/v7e-m/nofp\libc.a(lib_a-abort.o)
 .data          0x00000000        0x0 d:/program files/gnu arm embedded toolchain/9 2020-q2-update/bin/../lib/gcc/arm-none-eabi/9.3.1/../../../../arm-none-eabi/lib/thumb/v7e-m/nofp\libc.a(lib_a-abort.o)
 .bss           0x00000000        0x0 d:/program files/gnu arm embedded toolchain/9 2020-q2-update/bin/../lib/gcc/arm-none-eabi/9.3.1/../../../../arm-none-eabi/lib/thumb/v7e-m/nofp\libc.a(lib_a-abort.o)
 .text          0x00000000        0x0 d:/program files/gnu arm embedded toolchain/9 2020-q2-update/bin/../lib/gcc/arm-none-eabi/9.3.1/../../../../arm-none-eabi/lib/thumb/v7e-m/nofp\libc.a(lib_a-ctype_.o)
 .data          0x00000000        0x0 d:/program files/gnu arm embedded toolchain/9 2020-q2-update/bin/../lib/gcc/arm-none-eabi/9.3.1/../../../../arm-none-eabi/lib/thumb/v7e-m/nofp\libc.a(lib_a-ctype_.o)
 .bss           0x00000000        0x0 d:/program files/gnu arm embedded toolchain/9 2020-q2-update/bin/../lib/gcc/arm-none-eabi/9.3.1/../../../../arm-none-eabi/lib/thumb/v7e-m/nofp\libc.a(lib_a-ctype_.o)
 .text          0x00000000        0x0 d:/program files/gnu arm embedded toolchain/9 2020-q2-update/bin/../lib/gcc/arm-none-eabi/9.3.1/../../../../arm-none-eabi/lib/thumb/v7e-m/nofp\libc.a(lib_a-fflush.o)
 .data          0x00000000        0x0 d:/program files/gnu arm embedded toolchain/9 2020-q2-update/bin/../lib/gcc/arm-none-eabi/9.3.1/../../../../arm-none-eabi/lib/thumb/v7e-m/nofp\libc.a(lib_a-fflush.o)
 .bss           0x00000000        0x0 d:/program files/gnu arm embedded toolchain/9 2020-q2-update/bin/../lib/gcc/arm-none-eabi/9.3.1/../../../../arm-none-eabi/lib/thumb/v7e-m/nofp\libc.a(lib_a-fflush.o)
 .text.fflush   0x00000000       0x24 d:/program files/gnu arm embedded toolchain/9 2020-q2-update/bin/../lib/gcc/arm-none-eabi/9.3.1/../../../../arm-none-eabi/lib/thumb/v7e-m/nofp\libc.a(lib_a-fflush.o)
 .text          0x00000000        0x0 d:/program files/gnu arm embedded toolchain/9 2020-q2-update/bin/../lib/gcc/arm-none-eabi/9.3.1/../../../../arm-none-eabi/lib/thumb/v7e-m/nofp\libc.a(lib_a-findfp.o)
 .data          0x00000000        0x0 d:/program files/gnu arm embedded toolchain/9 2020-q2-update/bin/../lib/gcc/arm-none-eabi/9.3.1/../../../../arm-none-eabi/lib/thumb/v7e-m/nofp\libc.a(lib_a-findfp.o)
 .bss           0x00000000        0x0 d:/program files/gnu arm embedded toolchain/9 2020-q2-update/bin/../lib/gcc/arm-none-eabi/9.3.1/../../../../arm-none-eabi/lib/thumb/v7e-m/nofp\libc.a(lib_a-findfp.o)
 .text.__fp_lock
                0x00000000       0x1c d:/program files/gnu arm embedded toolchain/9 2020-q2-update/bin/../lib/gcc/arm-none-eabi/9.3.1/../../../../arm-none-eabi/lib/thumb/v7e-m/nofp\libc.a(lib_a-findfp.o)
 .text.__fp_unlock
                0x00000000       0x1c d:/program files/gnu arm embedded toolchain/9 2020-q2-update/bin/../lib/gcc/arm-none-eabi/9.3.1/../../../../arm-none-eabi/lib/thumb/v7e-m/nofp\libc.a(lib_a-findfp.o)
 .text.__sfmoreglue
                0x00000000       0x30 d:/program files/gnu arm embedded toolchain/9 2020-q2-update/bin/../lib/gcc/arm-none-eabi/9.3.1/../../../../arm-none-eabi/lib/thumb/v7e-m/nofp\libc.a(lib_a-findfp.o)
 .text._cleanup
                0x00000000       0x14 d:/program files/gnu arm embedded toolchain/9 2020-q2-update/bin/../lib/gcc/arm-none-eabi/9.3.1/../../../../arm-none-eabi/lib/thumb/v7e-m/nofp\libc.a(lib_a-findfp.o)
 .text.__sfp    0x00000000       0xa4 d:/program files/gnu arm embedded toolchain/9 2020-q2-update/bin/../lib/gcc/arm-none-eabi/9.3.1/../../../../arm-none-eabi/lib/thumb/v7e-m/nofp\libc.a(lib_a-findfp.o)
 .text.__sinit_lock_acquire
                0x00000000        0xc d:/program files/gnu arm embedded toolchain/9 2020-q2-update/bin/../lib/gcc/arm-none-eabi/9.3.1/../../../../arm-none-eabi/lib/thumb/v7e-m/nofp\libc.a(lib_a-findfp.o)
 .text.__sinit_lock_release
                0x00000000        0xc d:/program files/gnu arm embedded toolchain/9 2020-q2-update/bin/../lib/gcc/arm-none-eabi/9.3.1/../../../../arm-none-eabi/lib/thumb/v7e-m/nofp\libc.a(lib_a-findfp.o)
 .text.__fp_lock_all
                0x00000000       0x24 d:/program files/gnu arm embedded toolchain/9 2020-q2-update/bin/../lib/gcc/arm-none-eabi/9.3.1/../../../../arm-none-eabi/lib/thumb/v7e-m/nofp\libc.a(lib_a-findfp.o)
 .text.__fp_unlock_all
                0x00000000       0x24 d:/program files/gnu arm embedded toolchain/9 2020-q2-update/bin/../lib/gcc/arm-none-eabi/9.3.1/../../../../arm-none-eabi/lib/thumb/v7e-m/nofp\libc.a(lib_a-findfp.o)
 .text          0x00000000        0x0 d:/program files/gnu arm embedded toolchain/9 2020-q2-update/bin/../lib/gcc/arm-none-eabi/9.3.1/../../../../arm-none-eabi/lib/thumb/v7e-m/nofp\libc.a(lib_a-fputwc.o)
 .data          0x00000000        0x0 d:/program files/gnu arm embedded toolchain/9 2020-q2-update/bin/../lib/gcc/arm-none-eabi/9.3.1/../../../../arm-none-eabi/lib/thumb/v7e-m/nofp\libc.a(lib_a-fputwc.o)
 .bss           0x00000000        0x0 d:/program files/gnu arm embedded toolchain/9 2020-q2-update/bin/../lib/gcc/arm-none-eabi/9.3.1/../../../../arm-none-eabi/lib/thumb/v7e-m/nofp\libc.a(lib_a-fputwc.o)
 .text.fputwc   0x00000000       0x38 d:/program files/gnu arm embedded toolchain/9 2020-q2-update/bin/../lib/gcc/arm-none-eabi/9.3.1/../../../../arm-none-eabi/lib/thumb/v7e-m/nofp\libc.a(lib_a-fputwc.o)
 .text          0x00000000        0x0 d:/program files/gnu arm embedded toolchain/9 2020-q2-update/bin/../lib/gcc/arm-none-eabi/9.3.1/../../../../arm-none-eabi/lib/thumb/v7e-m/nofp\libc.a(lib_a-fvwrite.o)
 .data          0x00000000        0x0 d:/program files/gnu arm embedded toolchain/9 2020-q2-update/bin/../lib/gcc/arm-none-eabi/9.3.1/../../../../arm-none-eabi/lib/thumb/v7e-m/nofp\libc.a(lib_a-fvwrite.o)
 .bss           0x00000000        0x0 d:/program files/gnu arm embedded toolchain/9 2020-q2-update/bin/../lib/gcc/arm-none-eabi/9.3.1/../../../../arm-none-eabi/lib/thumb/v7e-m/nofp\libc.a(lib_a-fvwrite.o)
 .text          0x00000000        0x0 d:/program files/gnu arm embedded toolchain/9 2020-q2-update/bin/../lib/gcc/arm-none-eabi/9.3.1/../../../../arm-none-eabi/lib/thumb/v7e-m/nofp\libc.a(lib_a-fwalk.o)
 .data          0x00000000        0x0 d:/program files/gnu arm embedded toolchain/9 2020-q2-update/bin/../lib/gcc/arm-none-eabi/9.3.1/../../../../arm-none-eabi/lib/thumb/v7e-m/nofp\libc.a(lib_a-fwalk.o)
 .bss           0x00000000        0x0 d:/program files/gnu arm embedded toolchain/9 2020-q2-update/bin/../lib/gcc/arm-none-eabi/9.3.1/../../../../arm-none-eabi/lib/thumb/v7e-m/nofp\libc.a(lib_a-fwalk.o)
 .text._fwalk   0x00000000       0x40 d:/program files/gnu arm embedded toolchain/9 2020-q2-update/bin/../lib/gcc/arm-none-eabi/9.3.1/../../../../arm-none-eabi/lib/thumb/v7e-m/nofp\libc.a(lib_a-fwalk.o)
 .text          0x00000000        0x0 d:/program files/gnu arm embedded toolchain/9 2020-q2-update/bin/../lib/gcc/arm-none-eabi/9.3.1/../../../../arm-none-eabi/lib/thumb/v7e-m/nofp\libc.a(lib_a-makebuf.o)
 .data          0x00000000        0x0 d:/program files/gnu arm embedded toolchain/9 2020-q2-update/bin/../lib/gcc/arm-none-eabi/9.3.1/../../../../arm-none-eabi/lib/thumb/v7e-m/nofp\libc.a(lib_a-makebuf.o)
 .bss           0x00000000        0x0 d:/program files/gnu arm embedded toolchain/9 2020-q2-update/bin/../lib/gcc/arm-none-eabi/9.3.1/../../../../arm-none-eabi/lib/thumb/v7e-m/nofp\libc.a(lib_a-makebuf.o)
 .text          0x00000000        0x0 d:/program files/gnu arm embedded toolchain/9 2020-q2-update/bin/../lib/gcc/arm-none-eabi/9.3.1/../../../../arm-none-eabi/lib/thumb/v7e-m/nofp\libc.a(lib_a-signal.o)
 .data          0x00000000        0x0 d:/program files/gnu arm embedded toolchain/9 2020-q2-update/bin/../lib/gcc/arm-none-eabi/9.3.1/../../../../arm-none-eabi/lib/thumb/v7e-m/nofp\libc.a(lib_a-signal.o)
 .bss           0x00000000        0x0 d:/program files/gnu arm embedded toolchain/9 2020-q2-update/bin/../lib/gcc/arm-none-eabi/9.3.1/../../../../arm-none-eabi/lib/thumb/v7e-m/nofp\libc.a(lib_a-signal.o)
 .text._init_signal_r.part.0
                0x00000000       0x2c d:/program files/gnu arm embedded toolchain/9 2020-q2-update/bin/../lib/gcc/arm-none-eabi/9.3.1/../../../../arm-none-eabi/lib/thumb/v7e-m/nofp\libc.a(lib_a-signal.o)
 .text._init_signal_r
                0x00000000       0x10 d:/program files/gnu arm embedded toolchain/9 2020-q2-update/bin/../lib/gcc/arm-none-eabi/9.3.1/../../../../arm-none-eabi/lib/thumb/v7e-m/nofp\libc.a(lib_a-signal.o)
 .text._signal_r
                0x00000000       0x38 d:/program files/gnu arm embedded toolchain/9 2020-q2-update/bin/../lib/gcc/arm-none-eabi/9.3.1/../../../../arm-none-eabi/lib/thumb/v7e-m/nofp\libc.a(lib_a-signal.o)
 .text.__sigtramp_r
                0x00000000       0x54 d:/program files/gnu arm embedded toolchain/9 2020-q2-update/bin/../lib/gcc/arm-none-eabi/9.3.1/../../../../arm-none-eabi/lib/thumb/v7e-m/nofp\libc.a(lib_a-signal.o)
 .text.signal   0x00000000       0x10 d:/program files/gnu arm embedded toolchain/9 2020-q2-update/bin/../lib/gcc/arm-none-eabi/9.3.1/../../../../arm-none-eabi/lib/thumb/v7e-m/nofp\libc.a(lib_a-signal.o)
 .text._init_signal
                0x00000000       0x18 d:/program files/gnu arm embedded toolchain/9 2020-q2-update/bin/../lib/gcc/arm-none-eabi/9.3.1/../../../../arm-none-eabi/lib/thumb/v7e-m/nofp\libc.a(lib_a-signal.o)
 .text.__sigtramp
                0x00000000       0x10 d:/program files/gnu arm embedded toolchain/9 2020-q2-update/bin/../lib/gcc/arm-none-eabi/9.3.1/../../../../arm-none-eabi/lib/thumb/v7e-m/nofp\libc.a(lib_a-signal.o)
 .text          0x00000000        0x0 d:/program files/gnu arm embedded toolchain/9 2020-q2-update/bin/../lib/gcc/arm-none-eabi/9.3.1/../../../../arm-none-eabi/lib/thumb/v7e-m/nofp\libc.a(lib_a-signalr.o)
 .data          0x00000000        0x0 d:/program files/gnu arm embedded toolchain/9 2020-q2-update/bin/../lib/gcc/arm-none-eabi/9.3.1/../../../../arm-none-eabi/lib/thumb/v7e-m/nofp\libc.a(lib_a-signalr.o)
 .bss           0x00000000        0x0 d:/program files/gnu arm embedded toolchain/9 2020-q2-update/bin/../lib/gcc/arm-none-eabi/9.3.1/../../../../arm-none-eabi/lib/thumb/v7e-m/nofp\libc.a(lib_a-signalr.o)
 .text          0x00000000        0x0 d:/program files/gnu arm embedded toolchain/9 2020-q2-update/bin/../lib/gcc/arm-none-eabi/9.3.1/../../../../arm-none-eabi/lib/thumb/v7e-m/nofp\libc.a(lib_a-stdio.o)
 .data          0x00000000        0x0 d:/program files/gnu arm embedded toolchain/9 2020-q2-update/bin/../lib/gcc/arm-none-eabi/9.3.1/../../../../arm-none-eabi/lib/thumb/v7e-m/nofp\libc.a(lib_a-stdio.o)
 .bss           0x00000000        0x0 d:/program files/gnu arm embedded toolchain/9 2020-q2-update/bin/../lib/gcc/arm-none-eabi/9.3.1/../../../../arm-none-eabi/lib/thumb/v7e-m/nofp\libc.a(lib_a-stdio.o)
 .text.__seofread
                0x00000000        0x4 d:/program files/gnu arm embedded toolchain/9 2020-q2-update/bin/../lib/gcc/arm-none-eabi/9.3.1/../../../../arm-none-eabi/lib/thumb/v7e-m/nofp\libc.a(lib_a-stdio.o)
 .text          0x00000000        0x0 d:/program files/gnu arm embedded toolchain/9 2020-q2-update/bin/../lib/gcc/arm-none-eabi/9.3.1/../../../../arm-none-eabi/lib/thumb/v7e-m/nofp\libc.a(lib_a-wbuf.o)
 .data          0x00000000        0x0 d:/program files/gnu arm embedded toolchain/9 2020-q2-update/bin/../lib/gcc/arm-none-eabi/9.3.1/../../../../arm-none-eabi/lib/thumb/v7e-m/nofp\libc.a(lib_a-wbuf.o)
 .bss           0x00000000        0x0 d:/program files/gnu arm embedded toolchain/9 2020-q2-update/bin/../lib/gcc/arm-none-eabi/9.3.1/../../../../arm-none-eabi/lib/thumb/v7e-m/nofp\libc.a(lib_a-wbuf.o)
 .text.__swbuf  0x00000000       0x10 d:/program files/gnu arm embedded toolchain/9 2020-q2-update/bin/../lib/gcc/arm-none-eabi/9.3.1/../../../../arm-none-eabi/lib/thumb/v7e-m/nofp\libc.a(lib_a-wbuf.o)
 .text          0x00000000        0x0 d:/program files/gnu arm embedded toolchain/9 2020-q2-update/bin/../lib/gcc/arm-none-eabi/9.3.1/../../../../arm-none-eabi/lib/thumb/v7e-m/nofp\libc.a(lib_a-wcrtomb.o)
 .data          0x00000000        0x0 d:/program files/gnu arm embedded toolchain/9 2020-q2-update/bin/../lib/gcc/arm-none-eabi/9.3.1/../../../../arm-none-eabi/lib/thumb/v7e-m/nofp\libc.a(lib_a-wcrtomb.o)
 .bss           0x00000000        0x0 d:/program files/gnu arm embedded toolchain/9 2020-q2-update/bin/../lib/gcc/arm-none-eabi/9.3.1/../../../../arm-none-eabi/lib/thumb/v7e-m/nofp\libc.a(lib_a-wcrtomb.o)
 .text.wcrtomb  0x00000000       0x4c d:/program files/gnu arm embedded toolchain/9 2020-q2-update/bin/../lib/gcc/arm-none-eabi/9.3.1/../../../../arm-none-eabi/lib/thumb/v7e-m/nofp\libc.a(lib_a-wcrtomb.o)
 .text          0x00000000        0x0 d:/program files/gnu arm embedded toolchain/9 2020-q2-update/bin/../lib/gcc/arm-none-eabi/9.3.1/../../../../arm-none-eabi/lib/thumb/v7e-m/nofp\libc.a(lib_a-writer.o)
 .data          0x00000000        0x0 d:/program files/gnu arm embedded toolchain/9 2020-q2-update/bin/../lib/gcc/arm-none-eabi/9.3.1/../../../../arm-none-eabi/lib/thumb/v7e-m/nofp\libc.a(lib_a-writer.o)
 .bss           0x00000000        0x0 d:/program files/gnu arm embedded toolchain/9 2020-q2-update/bin/../lib/gcc/arm-none-eabi/9.3.1/../../../../arm-none-eabi/lib/thumb/v7e-m/nofp\libc.a(lib_a-writer.o)
 .text          0x00000000        0x0 d:/program files/gnu arm embedded toolchain/9 2020-q2-update/bin/../lib/gcc/arm-none-eabi/9.3.1/../../../../arm-none-eabi/lib/thumb/v7e-m/nofp\libc.a(lib_a-closer.o)
 .data          0x00000000        0x0 d:/program files/gnu arm embedded toolchain/9 2020-q2-update/bin/../lib/gcc/arm-none-eabi/9.3.1/../../../../arm-none-eabi/lib/thumb/v7e-m/nofp\libc.a(lib_a-closer.o)
 .bss           0x00000000        0x0 d:/program files/gnu arm embedded toolchain/9 2020-q2-update/bin/../lib/gcc/arm-none-eabi/9.3.1/../../../../arm-none-eabi/lib/thumb/v7e-m/nofp\libc.a(lib_a-closer.o)
 .text          0x00000000        0x0 d:/program files/gnu arm embedded toolchain/9 2020-q2-update/bin/../lib/gcc/arm-none-eabi/9.3.1/../../../../arm-none-eabi/lib/thumb/v7e-m/nofp\libc.a(lib_a-fclose.o)
 .data          0x00000000        0x0 d:/program files/gnu arm embedded toolchain/9 2020-q2-update/bin/../lib/gcc/arm-none-eabi/9.3.1/../../../../arm-none-eabi/lib/thumb/v7e-m/nofp\libc.a(lib_a-fclose.o)
 .bss           0x00000000        0x0 d:/program files/gnu arm embedded toolchain/9 2020-q2-update/bin/../lib/gcc/arm-none-eabi/9.3.1/../../../../arm-none-eabi/lib/thumb/v7e-m/nofp\libc.a(lib_a-fclose.o)
 .text.fclose   0x00000000       0x10 d:/program files/gnu arm embedded toolchain/9 2020-q2-update/bin/../lib/gcc/arm-none-eabi/9.3.1/../../../../arm-none-eabi/lib/thumb/v7e-m/nofp\libc.a(lib_a-fclose.o)
 .text          0x00000000        0x0 d:/program files/gnu arm embedded toolchain/9 2020-q2-update/bin/../lib/gcc/arm-none-eabi/9.3.1/../../../../arm-none-eabi/lib/thumb/v7e-m/nofp\libc.a(lib_a-fstatr.o)
 .data          0x00000000        0x0 d:/program files/gnu arm embedded toolchain/9 2020-q2-update/bin/../lib/gcc/arm-none-eabi/9.3.1/../../../../arm-none-eabi/lib/thumb/v7e-m/nofp\libc.a(lib_a-fstatr.o)
 .bss           0x00000000        0x0 d:/program files/gnu arm embedded toolchain/9 2020-q2-update/bin/../lib/gcc/arm-none-eabi/9.3.1/../../../../arm-none-eabi/lib/thumb/v7e-m/nofp\libc.a(lib_a-fstatr.o)
 .text          0x00000000        0x0 d:/program files/gnu arm embedded toolchain/9 2020-q2-update/bin/../lib/gcc/arm-none-eabi/9.3.1/../../../../arm-none-eabi/lib/thumb/v7e-m/nofp\libc.a(lib_a-isattyr.o)
 .data          0x00000000        0x0 d:/program files/gnu arm embedded toolchain/9 2020-q2-update/bin/../lib/gcc/arm-none-eabi/9.3.1/../../../../arm-none-eabi/lib/thumb/v7e-m/nofp\libc.a(lib_a-isattyr.o)
 .bss           0x00000000        0x0 d:/program files/gnu arm embedded toolchain/9 2020-q2-update/bin/../lib/gcc/arm-none-eabi/9.3.1/../../../../arm-none-eabi/lib/thumb/v7e-m/nofp\libc.a(lib_a-isattyr.o)
 .text          0x00000000        0x0 d:/program files/gnu arm embedded toolchain/9 2020-q2-update/bin/../lib/gcc/arm-none-eabi/9.3.1/../../../../arm-none-eabi/lib/thumb/v7e-m/nofp\libc.a(lib_a-lseekr.o)
 .data          0x00000000        0x0 d:/program files/gnu arm embedded toolchain/9 2020-q2-update/bin/../lib/gcc/arm-none-eabi/9.3.1/../../../../arm-none-eabi/lib/thumb/v7e-m/nofp\libc.a(lib_a-lseekr.o)
 .bss           0x00000000        0x0 d:/program files/gnu arm embedded toolchain/9 2020-q2-update/bin/../lib/gcc/arm-none-eabi/9.3.1/../../../../arm-none-eabi/lib/thumb/v7e-m/nofp\libc.a(lib_a-lseekr.o)
 .text          0x00000000        0x0 d:/program files/gnu arm embedded toolchain/9 2020-q2-update/bin/../lib/gcc/arm-none-eabi/9.3.1/../../../../arm-none-eabi/lib/thumb/v7e-m/nofp\libc.a(lib_a-readr.o)
 .data          0x00000000        0x0 d:/program files/gnu arm embedded toolchain/9 2020-q2-update/bin/../lib/gcc/arm-none-eabi/9.3.1/../../../../arm-none-eabi/lib/thumb/v7e-m/nofp\libc.a(lib_a-readr.o)
 .bss           0x00000000        0x0 d:/program files/gnu arm embedded toolchain/9 2020-q2-update/bin/../lib/gcc/arm-none-eabi/9.3.1/../../../../arm-none-eabi/lib/thumb/v7e-m/nofp\libc.a(lib_a-readr.o)
 .text          0x00000000        0x0 d:/program files/gnu arm embedded toolchain/9 2020-q2-update/bin/../lib/gcc/arm-none-eabi/9.3.1/../../../../arm-none-eabi/lib/thumb/v7e-m/nofp\libnosys.a(close.o)
 .data          0x00000000        0x0 d:/program files/gnu arm embedded toolchain/9 2020-q2-update/bin/../lib/gcc/arm-none-eabi/9.3.1/../../../../arm-none-eabi/lib/thumb/v7e-m/nofp\libnosys.a(close.o)
 .bss           0x00000000        0x0 d:/program files/gnu arm embedded toolchain/9 2020-q2-update/bin/../lib/gcc/arm-none-eabi/9.3.1/../../../../arm-none-eabi/lib/thumb/v7e-m/nofp\libnosys.a(close.o)
 .text          0x00000000        0x0 d:/program files/gnu arm embedded toolchain/9 2020-q2-update/bin/../lib/gcc/arm-none-eabi/9.3.1/../../../../arm-none-eabi/lib/thumb/v7e-m/nofp\libnosys.a(fstat.o)
 .data          0x00000000        0x0 d:/program files/gnu arm embedded toolchain/9 2020-q2-update/bin/../lib/gcc/arm-none-eabi/9.3.1/../../../../arm-none-eabi/lib/thumb/v7e-m/nofp\libnosys.a(fstat.o)
 .bss           0x00000000        0x0 d:/program files/gnu arm embedded toolchain/9 2020-q2-update/bin/../lib/gcc/arm-none-eabi/9.3.1/../../../../arm-none-eabi/lib/thumb/v7e-m/nofp\libnosys.a(fstat.o)
 .text          0x00000000        0x0 d:/program files/gnu arm embedded toolchain/9 2020-q2-update/bin/../lib/gcc/arm-none-eabi/9.3.1/../../../../arm-none-eabi/lib/thumb/v7e-m/nofp\libnosys.a(getpid.o)
 .data          0x00000000        0x0 d:/program files/gnu arm embedded toolchain/9 2020-q2-update/bin/../lib/gcc/arm-none-eabi/9.3.1/../../../../arm-none-eabi/lib/thumb/v7e-m/nofp\libnosys.a(getpid.o)
 .bss           0x00000000        0x0 d:/program files/gnu arm embedded toolchain/9 2020-q2-update/bin/../lib/gcc/arm-none-eabi/9.3.1/../../../../arm-none-eabi/lib/thumb/v7e-m/nofp\libnosys.a(getpid.o)
 .text          0x00000000        0x0 d:/program files/gnu arm embedded toolchain/9 2020-q2-update/bin/../lib/gcc/arm-none-eabi/9.3.1/../../../../arm-none-eabi/lib/thumb/v7e-m/nofp\libnosys.a(isatty.o)
 .data          0x00000000        0x0 d:/program files/gnu arm embedded toolchain/9 2020-q2-update/bin/../lib/gcc/arm-none-eabi/9.3.1/../../../../arm-none-eabi/lib/thumb/v7e-m/nofp\libnosys.a(isatty.o)
 .bss           0x00000000        0x0 d:/program files/gnu arm embedded toolchain/9 2020-q2-update/bin/../lib/gcc/arm-none-eabi/9.3.1/../../../../arm-none-eabi/lib/thumb/v7e-m/nofp\libnosys.a(isatty.o)
 .text          0x00000000        0x0 d:/program files/gnu arm embedded toolchain/9 2020-q2-update/bin/../lib/gcc/arm-none-eabi/9.3.1/../../../../arm-none-eabi/lib/thumb/v7e-m/nofp\libnosys.a(kill.o)
 .data          0x00000000        0x0 d:/program files/gnu arm embedded toolchain/9 2020-q2-update/bin/../lib/gcc/arm-none-eabi/9.3.1/../../../../arm-none-eabi/lib/thumb/v7e-m/nofp\libnosys.a(kill.o)
 .bss           0x00000000        0x0 d:/program files/gnu arm embedded toolchain/9 2020-q2-update/bin/../lib/gcc/arm-none-eabi/9.3.1/../../../../arm-none-eabi/lib/thumb/v7e-m/nofp\libnosys.a(kill.o)
 .text          0x00000000        0x0 d:/program files/gnu arm embedded toolchain/9 2020-q2-update/bin/../lib/gcc/arm-none-eabi/9.3.1/../../../../arm-none-eabi/lib/thumb/v7e-m/nofp\libnosys.a(lseek.o)
 .data          0x00000000        0x0 d:/program files/gnu arm embedded toolchain/9 2020-q2-update/bin/../lib/gcc/arm-none-eabi/9.3.1/../../../../arm-none-eabi/lib/thumb/v7e-m/nofp\libnosys.a(lseek.o)
 .bss           0x00000000        0x0 d:/program files/gnu arm embedded toolchain/9 2020-q2-update/bin/../lib/gcc/arm-none-eabi/9.3.1/../../../../arm-none-eabi/lib/thumb/v7e-m/nofp\libnosys.a(lseek.o)
 .text          0x00000000        0x0 d:/program files/gnu arm embedded toolchain/9 2020-q2-update/bin/../lib/gcc/arm-none-eabi/9.3.1/../../../../arm-none-eabi/lib/thumb/v7e-m/nofp\libnosys.a(read.o)
 .data          0x00000000        0x0 d:/program files/gnu arm embedded toolchain/9 2020-q2-update/bin/../lib/gcc/arm-none-eabi/9.3.1/../../../../arm-none-eabi/lib/thumb/v7e-m/nofp\libnosys.a(read.o)
 .bss           0x00000000        0x0 d:/program files/gnu arm embedded toolchain/9 2020-q2-update/bin/../lib/gcc/arm-none-eabi/9.3.1/../../../../arm-none-eabi/lib/thumb/v7e-m/nofp\libnosys.a(read.o)
 .text          0x00000000        0x0 d:/program files/gnu arm embedded toolchain/9 2020-q2-update/bin/../lib/gcc/arm-none-eabi/9.3.1/../../../../arm-none-eabi/lib/thumb/v7e-m/nofp\libnosys.a(sbrk.o)
 .data          0x00000000        0x0 d:/program files/gnu arm embedded toolchain/9 2020-q2-update/bin/../lib/gcc/arm-none-eabi/9.3.1/../../../../arm-none-eabi/lib/thumb/v7e-m/nofp\libnosys.a(sbrk.o)
 .bss           0x00000000        0x0 d:/program files/gnu arm embedded toolchain/9 2020-q2-update/bin/../lib/gcc/arm-none-eabi/9.3.1/../../../../arm-none-eabi/lib/thumb/v7e-m/nofp\libnosys.a(sbrk.o)
 .text          0x00000000        0x0 d:/program files/gnu arm embedded toolchain/9 2020-q2-update/bin/../lib/gcc/arm-none-eabi/9.3.1/../../../../arm-none-eabi/lib/thumb/v7e-m/nofp\libnosys.a(write.o)
 .data          0x00000000        0x0 d:/program files/gnu arm embedded toolchain/9 2020-q2-update/bin/../lib/gcc/arm-none-eabi/9.3.1/../../../../arm-none-eabi/lib/thumb/v7e-m/nofp\libnosys.a(write.o)
 .bss           0x00000000        0x0 d:/program files/gnu arm embedded toolchain/9 2020-q2-update/bin/../lib/gcc/arm-none-eabi/9.3.1/../../../../arm-none-eabi/lib/thumb/v7e-m/nofp\libnosys.a(write.o)
 .text          0x00000000        0x0 d:/program files/gnu arm embedded toolchain/9 2020-q2-update/bin/../lib/gcc/arm-none-eabi/9.3.1/../../../../arm-none-eabi/lib/thumb/v7e-m/nofp\libnosys.a(_exit.o)
 .data          0x00000000        0x0 d:/program files/gnu arm embedded toolchain/9 2020-q2-update/bin/../lib/gcc/arm-none-eabi/9.3.1/../../../../arm-none-eabi/lib/thumb/v7e-m/nofp\libnosys.a(_exit.o)
 .bss           0x00000000        0x0 d:/program files/gnu arm embedded toolchain/9 2020-q2-update/bin/../lib/gcc/arm-none-eabi/9.3.1/../../../../arm-none-eabi/lib/thumb/v7e-m/nofp\libnosys.a(_exit.o)
 .text          0x00000000        0x0 d:/program files/gnu arm embedded toolchain/9 2020-q2-update/bin/../lib/gcc/arm-none-eabi/9.3.1/thumb/v7e-m/nofp/crtend.o
 .data          0x00000000        0x0 d:/program files/gnu arm embedded toolchain/9 2020-q2-update/bin/../lib/gcc/arm-none-eabi/9.3.1/thumb/v7e-m/nofp/crtend.o
 .bss           0x00000000        0x0 d:/program files/gnu arm embedded toolchain/9 2020-q2-update/bin/../lib/gcc/arm-none-eabi/9.3.1/thumb/v7e-m/nofp/crtend.o
 .eh_frame      0x00000000        0x4 d:/program files/gnu arm embedded toolchain/9 2020-q2-update/bin/../lib/gcc/arm-none-eabi/9.3.1/thumb/v7e-m/nofp/crtend.o
 .ARM.attributes
                0x00000000       0x2e d:/program files/gnu arm embedded toolchain/9 2020-q2-update/bin/../lib/gcc/arm-none-eabi/9.3.1/thumb/v7e-m/nofp/crtend.o
 .text          0x00000000        0x0 d:/program files/gnu arm embedded toolchain/9 2020-q2-update/bin/../lib/gcc/arm-none-eabi/9.3.1/thumb/v7e-m/nofp/crtn.o
 .data          0x00000000        0x0 d:/program files/gnu arm embedded toolchain/9 2020-q2-update/bin/../lib/gcc/arm-none-eabi/9.3.1/thumb/v7e-m/nofp/crtn.o
 .bss           0x00000000        0x0 d:/program files/gnu arm embedded toolchain/9 2020-q2-update/bin/../lib/gcc/arm-none-eabi/9.3.1/thumb/v7e-m/nofp/crtn.o

Memory Configuration

Name             Origin             Length             Attributes
FLASH            0x08000000         0x00020000         xr
RAM              0x20000000         0x00004000         xrw
*default*        0x00000000         0xffffffff

Linker script and memory map

LOAD d:/program files/gnu arm embedded toolchain/9 2020-q2-update/bin/../lib/gcc/arm-none-eabi/9.3.1/thumb/v7e-m/nofp/crti.o
LOAD d:/program files/gnu arm embedded toolchain/9 2020-q2-update/bin/../lib/gcc/arm-none-eabi/9.3.1/thumb/v7e-m/nofp/crtbegin.o
LOAD d:/program files/gnu arm embedded toolchain/9 2020-q2-update/bin/../lib/gcc/arm-none-eabi/9.3.1/../../../../arm-none-eabi/lib/thumb/v7e-m/nofp/crt0.o
LOAD ./objects/system_cm4.o
LOAD ./objects/startup_cm4.o
LOAD ./objects/printf-stdarg.o
LOAD ./objects/tremo_adc.o
LOAD ./objects/tremo_bstimer.o
LOAD ./objects/tremo_crc.o
LOAD ./objects/tremo_dac.o
LOAD ./objects/tremo_delay.o
LOAD ./objects/tremo_dma.o
LOAD ./objects/tremo_flash.o
LOAD ./objects/tremo_gpio.o
LOAD ./objects/tremo_i2c.o
LOAD ./objects/tremo_i2s.o
LOAD ./objects/tremo_iwdg.o
LOAD ./objects/tremo_lcd.o
LOAD ./objects/tremo_lptimer.o
LOAD ./objects/tremo_lpuart.o
LOAD ./objects/tremo_pwr.o
LOAD ./objects/tremo_rcc.o
LOAD ./objects/tremo_rtc.o
LOAD ./objects/tremo_spi.o
LOAD ./objects/tremo_system.o
LOAD ./objects/tremo_timer.o
LOAD ./objects/tremo_uart.o
LOAD ./objects/tremo_wdg.o
LOAD ./objects/main.o
LOAD ./objects/tremo_it.o
LOAD ./objects/classa.o
LOAD ./objects/strtohex.o
LOAD ./objects/set_tx_duty_cycle_time.o
LOAD ./objects/gwlog.o
LOAD ./objects/iic.o
LOAD ./objects/ads1115.o
LOAD ./objects/bh1750.o
LOAD ./objects/sgp30.o
LOAD ./objects/dht11.o
LOAD ./objects/sha256.o
LOAD ./objects/gentriplet.o
LOAD ./objects/delay.o
LOAD ./objects/timer.o
LOAD ./objects/cmac.o
LOAD ./objects/radio.o
LOAD ./objects/sx126x.o
LOAD ./objects/rtc-board.o
LOAD ./objects/sx1262-board.o
LOAD ./objects/utilities.o
LOAD ./objects/loramac.o
LOAD ./objects/loramacclassb.o
LOAD ./objects/loramacconfirmqueue.o
LOAD ./objects/loramaccrypto.o
LOAD ./objects/region.o
LOAD ./objects/regioncommon.o
LOAD ./objects/regioncn470.o
LOAD ../../../drivers/crypto/lib/libcrypto.a
LOAD d:/program files/gnu arm embedded toolchain/9 2020-q2-update/bin/../lib/gcc/arm-none-eabi/9.3.1/../../../../arm-none-eabi/lib/thumb/v7e-m/nofp\libm.a
START GROUP
LOAD d:/program files/gnu arm embedded toolchain/9 2020-q2-update/bin/../lib/gcc/arm-none-eabi/9.3.1/thumb/v7e-m/nofp\libgcc.a
LOAD d:/program files/gnu arm embedded toolchain/9 2020-q2-update/bin/../lib/gcc/arm-none-eabi/9.3.1/../../../../arm-none-eabi/lib/thumb/v7e-m/nofp\libc.a
END GROUP
START GROUP
LOAD d:/program files/gnu arm embedded toolchain/9 2020-q2-update/bin/../lib/gcc/arm-none-eabi/9.3.1/thumb/v7e-m/nofp\libgcc.a
LOAD d:/program files/gnu arm embedded toolchain/9 2020-q2-update/bin/../lib/gcc/arm-none-eabi/9.3.1/../../../../arm-none-eabi/lib/thumb/v7e-m/nofp\libc.a
LOAD d:/program files/gnu arm embedded toolchain/9 2020-q2-update/bin/../lib/gcc/arm-none-eabi/9.3.1/../../../../arm-none-eabi/lib/thumb/v7e-m/nofp\libnosys.a
END GROUP
LOAD d:/program files/gnu arm embedded toolchain/9 2020-q2-update/bin/../lib/gcc/arm-none-eabi/9.3.1/thumb/v7e-m/nofp/crtend.o
LOAD d:/program files/gnu arm embedded toolchain/9 2020-q2-update/bin/../lib/gcc/arm-none-eabi/9.3.1/thumb/v7e-m/nofp/crtn.o
                0x20004000                _estack = 0x20004000
                0x00000000                _HEAP_SIZE = 0x0
                0x00001000                _STACK_SIZE = 0x1000

.isr_vector     0x08000000       0xd4
                0x08000000                . = ALIGN (0x4)
 *(.isr_vector)
 .isr_vector    0x08000000       0xd4 ./objects/startup_cm4.o
                0x08000000                g_pfnVectors
                0x080000d4                . = ALIGN (0x4)

.text           0x08000100    0x115c0
                0x08000100                . = ALIGN (0x4)
 *(.text)
 .text          0x08000100       0x40 d:/program files/gnu arm embedded toolchain/9 2020-q2-update/bin/../lib/gcc/arm-none-eabi/9.3.1/thumb/v7e-m/nofp/crtbegin.o
 .text          0x08000140      0x1ec ../../../drivers/crypto/lib/libcrypto.a(aes.o)
                0x08000140                aes_init
                0x08000250                aes_crypto
                0x080002f4                aes_close
 .text          0x0800032c      0x378 d:/program files/gnu arm embedded toolchain/9 2020-q2-update/bin/../lib/gcc/arm-none-eabi/9.3.1/thumb/v7e-m/nofp\libgcc.a(_arm_addsubdf3.o)
                0x0800032c                __aeabi_drsub
                0x08000334                __aeabi_dsub
                0x08000334                __subdf3
                0x08000338                __aeabi_dadd
                0x08000338                __adddf3
                0x080005b0                __floatunsidf
                0x080005b0                __aeabi_ui2d
                0x080005d0                __floatsidf
                0x080005d0                __aeabi_i2d
                0x080005f4                __aeabi_f2d
                0x080005f4                __extendsfdf2
                0x08000638                __floatundidf
                0x08000638                __aeabi_ul2d
                0x08000648                __floatdidf
                0x08000648                __aeabi_l2d
 .text          0x080006a4      0x424 d:/program files/gnu arm embedded toolchain/9 2020-q2-update/bin/../lib/gcc/arm-none-eabi/9.3.1/thumb/v7e-m/nofp\libgcc.a(_arm_muldivdf3.o)
                0x080006a4                __aeabi_dmul
                0x080006a4                __muldf3
                0x080008f8                __divdf3
                0x080008f8                __aeabi_ddiv
 .text          0x08000ac8      0x110 d:/program files/gnu arm embedded toolchain/9 2020-q2-update/bin/../lib/gcc/arm-none-eabi/9.3.1/thumb/v7e-m/nofp\libgcc.a(_arm_cmpdf2.o)
                0x08000ac8                __gtdf2
                0x08000ac8                __gedf2
                0x08000ad0                __ltdf2
                0x08000ad0                __ledf2
                0x08000ad8                __nedf2
                0x08000ad8                __eqdf2
                0x08000ad8                __cmpdf2
                0x08000b54                __aeabi_cdrcmple
                0x08000b64                __aeabi_cdcmpeq
                0x08000b64                __aeabi_cdcmple
                0x08000b74                __aeabi_dcmpeq
                0x08000b88                __aeabi_dcmplt
                0x08000b9c                __aeabi_dcmple
                0x08000bb0                __aeabi_dcmpge
                0x08000bc4                __aeabi_dcmpgt
 .text          0x08000bd8       0x2c d:/program files/gnu arm embedded toolchain/9 2020-q2-update/bin/../lib/gcc/arm-none-eabi/9.3.1/thumb/v7e-m/nofp\libgcc.a(_arm_unorddf2.o)
                0x08000bd8                __unorddf2
                0x08000bd8                __aeabi_dcmpun
 .text          0x08000c04       0x50 d:/program files/gnu arm embedded toolchain/9 2020-q2-update/bin/../lib/gcc/arm-none-eabi/9.3.1/thumb/v7e-m/nofp\libgcc.a(_arm_fixdfsi.o)
                0x08000c04                __aeabi_d2iz
                0x08000c04                __fixdfsi
 .text          0x08000c54       0x40 d:/program files/gnu arm embedded toolchain/9 2020-q2-update/bin/../lib/gcc/arm-none-eabi/9.3.1/thumb/v7e-m/nofp\libgcc.a(_arm_fixunsdfsi.o)
                0x08000c54                __aeabi_d2uiz
                0x08000c54                __fixunsdfsi
 .text          0x08000c94       0x30 d:/program files/gnu arm embedded toolchain/9 2020-q2-update/bin/../lib/gcc/arm-none-eabi/9.3.1/thumb/v7e-m/nofp\libgcc.a(_aeabi_uldivmod.o)
                0x08000c94                __aeabi_uldivmod
 .text          0x08000cc4       0x3c d:/program files/gnu arm embedded toolchain/9 2020-q2-update/bin/../lib/gcc/arm-none-eabi/9.3.1/thumb/v7e-m/nofp\libgcc.a(_fixunsdfdi.o)
                0x08000cc4                __fixunsdfdi
                0x08000cc4                __aeabi_d2ulz
 .text          0x08000d00      0x2c0 d:/program files/gnu arm embedded toolchain/9 2020-q2-update/bin/../lib/gcc/arm-none-eabi/9.3.1/thumb/v7e-m/nofp\libgcc.a(_udivmoddi4.o)
                0x08000d00                __udivmoddi4
 .text          0x08000fc0        0x4 d:/program files/gnu arm embedded toolchain/9 2020-q2-update/bin/../lib/gcc/arm-none-eabi/9.3.1/thumb/v7e-m/nofp\libgcc.a(_dvmd_tls.o)
                0x08000fc0                __aeabi_idiv0
                0x08000fc0                __aeabi_ldiv0
 .text          0x08000fc4      0x134 d:/program files/gnu arm embedded toolchain/9 2020-q2-update/bin/../lib/gcc/arm-none-eabi/9.3.1/../../../../arm-none-eabi/lib/thumb/v7e-m/nofp\libc.a(lib_a-memcpy.o)
                0x08000fc4                memcpy
 *fill*         0x080010f8        0x8 
 .text          0x08001100       0xdc d:/program files/gnu arm embedded toolchain/9 2020-q2-update/bin/../lib/gcc/arm-none-eabi/9.3.1/../../../../arm-none-eabi/lib/thumb/v7e-m/nofp\libc.a(lib_a-strlen.o)
                0x08001100                strlen
 *fill*         0x080011dc        0x4 
 .text          0x080011e0       0xa0 d:/program files/gnu arm embedded toolchain/9 2020-q2-update/bin/../lib/gcc/arm-none-eabi/9.3.1/../../../../arm-none-eabi/lib/thumb/v7e-m/nofp\libc.a(lib_a-memchr.o)
                0x080011e0                memchr
 *(.text*)
 .text.nvic_init
                0x08001280       0x24 ./objects/system_cm4.o
                0x08001280                nvic_init
 .text.system_init
                0x080012a4       0x44 ./objects/system_cm4.o
                0x080012a4                system_init
 .text.Reset_Handler
                0x080012e8       0x48 ./objects/startup_cm4.o
                0x080012e8                Reset_Handler
 .text.Default_Handler
                0x08001330        0x2 ./objects/startup_cm4.o
                0x08001330                GPIO_IRQHandler
                0x08001330                SCC_IRQHandler
                0x08001330                TIMER2_IRQHandler
                0x08001330                EFC_IRQHandler
                0x08001330                I2C0_IRQHandler
                0x08001330                SAC_IRQHandler
                0x08001330                I2C1_IRQHandler
                0x08001330                UART1_IRQHandler
                0x08001330                BSTIMER0_IRQHandler
                0x08001330                TIMER3_IRQHandler
                0x08001330                SEC_IRQHandler
                0x08001330                WDG_IRQHandler
                0x08001330                LPTIMER1_IRQHandler
                0x08001330                LPTIMER0_IRQHandler
                0x08001330                SSP0_IRQHandler
                0x08001330                I2S_IRQHandler
                0x08001330                I2C2_IRQHandler
                0x08001330                TIMER0_IRQHandler
                0x08001330                LCD_IRQHandler
                0x08001330                LPUART_IRQHandler
                0x08001330                TIMER1_IRQHandler
                0x08001330                UART2_IRQHandler
                0x08001330                Default_Handler
                0x08001330                ADC_IRQHandler
                0x08001330                SSP1_IRQHandler
                0x08001330                DMA0_IRQHandler
                0x08001330                IWDG_IRQHandler
                0x08001330                SSP2_IRQHandler
                0x08001330                BSTIMER1_IRQHandler
                0x08001330                DAC_IRQHandler
                0x08001330                AFEC_IRQHandler
                0x08001330                UART3_IRQHandler
                0x08001330                QSPI_IRQHandler
                0x08001330                DMA1_IRQHandler
 .text._out_buffer
                0x08001332        0x8 ./objects/printf-stdarg.o
 .text._out_null
                0x0800133a        0x2 ./objects/printf-stdarg.o
 .text._out_rev
                0x0800133c       0x96 ./objects/printf-stdarg.o
 .text._ntoa_format
                0x080013d2      0x10a ./objects/printf-stdarg.o
 .text._ntoa_long
                0x080014dc       0x82 ./objects/printf-stdarg.o
 .text._ntoa_long_long
                0x0800155e       0xa6 ./objects/printf-stdarg.o
 .text._out_char
                0x08001604       0x10 ./objects/printf-stdarg.o
 *fill*         0x08001614        0x4 
 .text._ftoa    0x08001618      0x32c ./objects/printf-stdarg.o
 *fill*         0x08001944        0x4 
 .text._etoa    0x08001948      0x3b8 ./objects/printf-stdarg.o
 .text._vsnprintf
                0x08001d00      0x550 ./objects/printf-stdarg.o
 .text.__wrap_printf
                0x08002250       0x28 ./objects/printf-stdarg.o
                0x08002250                __wrap_printf
 .text.__wrap_sprintf
                0x08002278       0x28 ./objects/printf-stdarg.o
                0x08002278                __wrap_sprintf
 .text.delay_init
                0x080022a0       0x48 ./objects/tremo_delay.o
                0x080022a0                delay_init
 .text.delay_us
                0x080022e8       0x30 ./objects/tremo_delay.o
                0x080022e8                delay_us
 .text.delay_ms
                0x08002318        0xa ./objects/tremo_delay.o
                0x08002318                delay_ms
 *fill*         0x08002322        0x2 
 .text.gpio_init
                0x08002324      0x124 ./objects/tremo_gpio.o
                0x08002324                gpio_init
 .text.gpio_write
                0x08002448       0xb4 ./objects/tremo_gpio.o
                0x08002448                gpio_write
 .text.gpio_read
                0x080024fc       0x12 ./objects/tremo_gpio.o
                0x080024fc                gpio_read
 *fill*         0x0800250e        0x2 
 .text.gpio_set_iomux
                0x08002510       0x40 ./objects/tremo_gpio.o
                0x08002510                gpio_set_iomux
 .text.deepsleep
                0x08002550       0xc0 ./objects/tremo_pwr.o
                0x08002550                deepsleep
 .text.pwr_deepsleep_wfi
                0x08002610        0x6 ./objects/tremo_pwr.o
                0x08002610                pwr_deepsleep_wfi
 *fill*         0x08002616        0x2 
 .text.pwr_xo32k_lpm_cmd
                0x08002618       0x18 ./objects/tremo_pwr.o
                0x08002618                pwr_xo32k_lpm_cmd
 .text.rcc_get_clk_freq
                0x08002630       0x9c ./objects/tremo_rcc.o
                0x08002630                rcc_get_clk_freq
 .text.rcc_set_adc_clk_source
                0x080026cc       0x28 ./objects/tremo_rcc.o
                0x080026cc                rcc_set_adc_clk_source
 .text.rcc_get_uart0_clk_source
                0x080026f4        0xc ./objects/tremo_rcc.o
                0x080026f4                rcc_get_uart0_clk_source
 .text.rcc_get_uart1_clk_source
                0x08002700        0xc ./objects/tremo_rcc.o
                0x08002700                rcc_get_uart1_clk_source
 .text.rcc_get_uart2_clk_source
                0x0800270c        0xc ./objects/tremo_rcc.o
                0x0800270c                rcc_get_uart2_clk_source
 .text.rcc_get_uart3_clk_source
                0x08002718        0xc ./objects/tremo_rcc.o
                0x08002718                rcc_get_uart3_clk_source
 .text.rcc_get_rtc_clk_source
                0x08002724        0xc ./objects/tremo_rcc.o
                0x08002724                rcc_get_rtc_clk_source
 .text.rcc_enable_peripheral_clk
                0x08002730      0x4b4 ./objects/tremo_rcc.o
                0x08002730                rcc_enable_peripheral_clk
 .text.rcc_enable_oscillator
                0x08002be4       0xfc ./objects/tremo_rcc.o
                0x08002be4                rcc_enable_oscillator
 .text.rcc_rst_peripheral
                0x08002ce0       0x4a ./objects/tremo_rcc.o
                0x08002ce0                rcc_rst_peripheral
 .text.rtc_deinit
                0x08002d2a       0x1e ./objects/tremo_rtc.o
                0x08002d2a                rtc_deinit
 .text.rtc_check_syn
                0x08002d48       0x14 ./objects/tremo_rtc.o
                0x08002d48                rtc_check_syn
 .text.rtc_calendar_cmd
                0x08002d5c       0x20 ./objects/tremo_rtc.o
                0x08002d5c                rtc_calendar_cmd
 .text.rtc_cyc_cmd
                0x08002d7c       0x20 ./objects/tremo_rtc.o
                0x08002d7c                rtc_cyc_cmd
 .text.rtc_config_cyc_wakeup
                0x08002d9c       0x24 ./objects/tremo_rtc.o
                0x08002d9c                rtc_config_cyc_wakeup
 .text.rtc_get_calendar
                0x08002dc0       0xdc ./objects/tremo_rtc.o
                0x08002dc0                rtc_get_calendar
 .text.rtc_set_status
                0x08002e9c       0x30 ./objects/tremo_rtc.o
                0x08002e9c                rtc_set_status
 .text.rtc_get_status
                0x08002ecc       0x38 ./objects/tremo_rtc.o
                0x08002ecc                rtc_get_status
 .text.rtc_config_interrupt
                0x08002f04       0x38 ./objects/tremo_rtc.o
                0x08002f04                rtc_config_interrupt
 .text.rtc_config_cyc_max
                0x08002f3c       0x14 ./objects/tremo_rtc.o
                0x08002f3c                rtc_config_cyc_max
 .text.system_get_chip_id
                0x08002f50       0x1c ./objects/tremo_system.o
                0x08002f50                system_get_chip_id
 .text.uart_send_data
                0x08002f6c        0xa ./objects/tremo_uart.o
                0x08002f6c                uart_send_data
 .text.uart_receive_data
                0x08002f76        0xc ./objects/tremo_uart.o
                0x08002f76                uart_receive_data
 .text.uart_config_interrupt
                0x08002f82       0x10 ./objects/tremo_uart.o
                0x08002f82                uart_config_interrupt
 .text.uart_config_init
                0x08002f92       0x16 ./objects/tremo_uart.o
                0x08002f92                uart_config_init
 .text.uart_cmd
                0x08002fa8       0x12 ./objects/tremo_uart.o
                0x08002fa8                uart_cmd
 *fill*         0x08002fba        0x2 
 .text.uart_init
                0x08002fbc      0x140 ./objects/tremo_uart.o
                0x08002fbc                uart_init
 .text.rcc_init
                0x080030fc       0x78 ./objects/main.o
                0x080030fc                rcc_init
 .text.uart_log_init
                0x08003174       0x40 ./objects/main.o
                0x08003174                uart_log_init
 .text.startup.main
                0x080031b4      0x1c0 ./objects/main.o
                0x080031b4                main
 .text.NMI_Handler
                0x08003374        0x2 ./objects/tremo_it.o
                0x08003374                NMI_Handler
 .text.HardFault_Handler
                0x08003376        0x2 ./objects/tremo_it.o
                0x08003376                HardFault_Handler
 .text.MemManage_Handler
                0x08003378        0x2 ./objects/tremo_it.o
                0x08003378                MemManage_Handler
 .text.BusFault_Handler
                0x0800337a        0x2 ./objects/tremo_it.o
                0x0800337a                BusFault_Handler
 .text.UsageFault_Handler
                0x0800337c        0x2 ./objects/tremo_it.o
                0x0800337c                UsageFault_Handler
 .text.SVC_Handler
                0x0800337e        0x2 ./objects/tremo_it.o
                0x0800337e                SVC_Handler
 .text.PendSV_Handler
                0x08003380        0x2 ./objects/tremo_it.o
                0x08003380                PendSV_Handler
 .text.SysTick_Handler
                0x08003382        0x2 ./objects/tremo_it.o
                0x08003382                SysTick_Handler
 .text.PWR_IRQHandler
                0x08003384        0x2 ./objects/tremo_it.o
                0x08003384                PWR_IRQHandler
 *fill*         0x08003386        0x2 
 .text.UART0_IRQHandler
                0x08003388       0x5c ./objects/tremo_it.o
                0x08003388                UART0_IRQHandler
 .text.LORA_IRQHandler
                0x080033e4        0x4 ./objects/tremo_it.o
                0x080033e4                LORA_IRQHandler
 .text.RTC_IRQHandler
                0x080033e8        0x4 ./objects/tremo_it.o
                0x080033e8                RTC_IRQHandler
 .text.McpsConfirm
                0x080033ec        0xc ./objects/classa.o
 .text.BoardGetBatteryLevel
                0x080033f8        0x4 ./objects/classa.o
                0x080033f8                BoardGetBatteryLevel
 .text.MlmeConfirm
                0x080033fc       0x98 ./objects/classa.o
 .text.OnTxNextPacketTimerEvent
                0x08003494       0x5c ./objects/classa.o
 .text.MlmeIndication
                0x080034f0        0xc ./objects/classa.o
 .text.McpsIndication
                0x080034fc      0x130 ./objects/classa.o
 .text.app_start
                0x0800362c      0x410 ./objects/classa.o
                0x0800362c                app_start
 .text.StringToHex
                0x08003a3c       0x70 ./objects/strtohex.o
                0x08003a3c                StringToHex
 .text.parse_TxDutyCycleTime_instruction
                0x08003aac       0xf4 ./objects/set_tx_duty_cycle_time.o
                0x08003aac                parse_TxDutyCycleTime_instruction
 .text.logLevelGet
                0x08003ba0       0x38 ./objects/gwlog.o
                0x08003ba0                logLevelGet
 .text.gw_log   0x08003bd8       0x7c ./objects/gwlog.o
                0x08003bd8                gw_log
 .text.delay    0x08003c54        0x6 ./objects/iic.o
                0x08003c54                delay
 *fill*         0x08003c5a        0x2 
 .text.IIC_GPIOInit
                0x08003c5c       0x28 ./objects/iic.o
                0x08003c5c                IIC_GPIOInit
 .text.IIC_Start
                0x08003c84       0x44 ./objects/iic.o
                0x08003c84                IIC_Start
 .text.IIC_Stop
                0x08003cc8       0x48 ./objects/iic.o
                0x08003cc8                IIC_Stop
 .text.IIC_WaitAck
                0x08003d10       0x88 ./objects/iic.o
                0x08003d10                IIC_WaitAck
 .text.IIC_Ack  0x08003d98       0x44 ./objects/iic.o
                0x08003d98                IIC_Ack
 .text.IIC_NoAck
                0x08003ddc       0x44 ./objects/iic.o
                0x08003ddc                IIC_NoAck
 .text.IIC_SendByte
                0x08003e20       0x50 ./objects/iic.o
                0x08003e20                IIC_SendByte
 .text.IIC_RecvByte
                0x08003e70       0x60 ./objects/iic.o
                0x08003e70                IIC_RecvByte
 .text.ads1115Config
                0x08003ed0       0x70 ./objects/ads1115.o
                0x08003ed0                ads1115Config
 .text.recvConvertionVal
                0x08003f40       0xb4 ./objects/ads1115.o
                0x08003f40                recvConvertionVal
 .text.getAD    0x08003ff4       0x54 ./objects/ads1115.o
                0x08003ff4                getAD
 .text.getADS1115value
                0x08004048      0x150 ./objects/ads1115.o
                0x08004048                getADS1115value
 .text.VoltageToPPM
                0x08004198      0x31c ./objects/ads1115.o
                0x08004198                VoltageToPPM
 .text.bh1750_Start
                0x080044b4       0x58 ./objects/bh1750.o
                0x080044b4                bh1750_Start
 .text.bh1750_Get
                0x0800450c       0xc8 ./objects/bh1750.o
                0x0800450c                bh1750_Get
 .text.sgp30_Init
                0x080045d4       0x64 ./objects/sgp30.o
                0x080045d4                sgp30_Init
 .text.sgp30_Get
                0x08004638       0xe8 ./objects/sgp30.o
                0x08004638                sgp30_Get
 .text.DHT11_GPIO_OUT
                0x08004720       0x1c ./objects/dht11.o
                0x08004720                DHT11_GPIO_OUT
 .text.DHT11_GPIO_IN
                0x0800473c       0x1c ./objects/dht11.o
                0x0800473c                DHT11_GPIO_IN
 .text.DHT11_Read_Byte
                0x08004758       0x74 ./objects/dht11.o
                0x08004758                DHT11_Read_Byte
 .text.dht11_Read
                0x080047cc      0x174 ./objects/dht11.o
                0x080047cc                dht11_Read
 .text._hash    0x08004940      0x134 ./objects/sha256.o
 .text.sha256_init
                0x08004a74       0x54 ./objects/sha256.o
                0x08004a74                sha256_init
 .text.sha256_hash
                0x08004ac8       0x46 ./objects/sha256.o
                0x08004ac8                sha256_hash
 .text.sha256_done
                0x08004b0e       0xaa ./objects/sha256.o
                0x08004b0e                sha256_done
 .text.sha256   0x08004bb8       0x26 ./objects/sha256.o
                0x08004bb8                sha256
 .text.uint32ToBytes
                0x08004bde        0x6 ./objects/sha256.o
                0x08004bde                uint32ToBytes
 .text.genTriplet
                0x08004be4       0xd0 ./objects/gentriplet.o
                0x08004be4                genTriplet
 .text.DelayMs  0x08004cb4        0x4 ./objects/delay.o
                0x08004cb4                DelayMs
 .text.TimeStampsUpdate
                0x08004cb8       0x2c ./objects/timer.o
 .text.TimerInsertNewHeadTimer
                0x08004ce4       0x1c ./objects/timer.o
 .text.TimerSetSysTime
                0x08004d00       0x30 ./objects/timer.o
                0x08004d00                TimerSetSysTime
 .text.TimerInit
                0x08004d30        0xe ./objects/timer.o
                0x08004d30                TimerInit
 *fill*         0x08004d3e        0x2 
 .text.TimerStart
                0x08004d40       0x78 ./objects/timer.o
                0x08004d40                TimerStart
 .text.TimerIrqHandler
                0x08004db8       0x68 ./objects/timer.o
                0x08004db8                TimerIrqHandler
 .text.TimerStop
                0x08004e20       0x60 ./objects/timer.o
                0x08004e20                TimerStop
 .text.TimerSetValue
                0x08004e80       0x10 ./objects/timer.o
                0x08004e80                TimerSetValue
 .text.TimerGetCurrentTime
                0x08004e90       0x18 ./objects/timer.o
                0x08004e90                TimerGetCurrentTime
 .text.TimerGetSysTime
                0x08004ea8       0x2c ./objects/timer.o
                0x08004ea8                TimerGetSysTime
 .text.TimerGetElapsedTime
                0x08004ed4       0x12 ./objects/timer.o
                0x08004ed4                TimerGetElapsedTime
 *fill*         0x08004ee6        0x2 
 .text.TimerLowPowerHandler
                0x08004ee8       0x20 ./objects/timer.o
                0x08004ee8                TimerLowPowerHandler
 .text.AES_CMAC_Init
                0x08004f08       0x14 ./objects/cmac.o
                0x08004f08                AES_CMAC_Init
 .text.AES_CMAC_SetKey
                0x08004f1c        0xc ./objects/cmac.o
                0x08004f1c                AES_CMAC_SetKey
 .text.AES_CMAC_Update
                0x08004f28       0xb0 ./objects/cmac.o
                0x08004f28                AES_CMAC_Update
 .text.AES_CMAC_Final
                0x08004fd8      0x15e ./objects/cmac.o
                0x08004fd8                AES_CMAC_Final
 .text.RadioCheckRfFrequency
                0x08005136        0x4 ./objects/radio.o
                0x08005136                RadioCheckRfFrequency
 *fill*         0x0800513a        0x2 
 .text.RadioOnTxTimeoutIrq
                0x0800513c       0x14 ./objects/radio.o
                0x0800513c                RadioOnTxTimeoutIrq
 .text.RadioOnRxTimeoutIrq
                0x08005150       0x14 ./objects/radio.o
                0x08005150                RadioOnRxTimeoutIrq
 .text.RadioStandby
                0x08005164        0x6 ./objects/radio.o
                0x08005164                RadioStandby
 *fill*         0x0800516a        0x2 
 .text.RadioInit
                0x0800516c       0x6c ./objects/radio.o
                0x0800516c                RadioInit
 .text.RadioGetStatus
                0x080051d8       0x18 ./objects/radio.o
                0x080051d8                RadioGetStatus
 .text.RadioSetChannel
                0x080051f0        0x4 ./objects/radio.o
                0x080051f0                RadioSetChannel
 .text.RadioRssi
                0x080051f4        0xa ./objects/radio.o
                0x080051f4                RadioRssi
 .text.RadioRead
                0x080051fe        0x4 ./objects/radio.o
                0x080051fe                RadioRead
 .text.RadioWrite
                0x08005202        0x4 ./objects/radio.o
                0x08005202                RadioWrite
 *fill*         0x08005206        0x2 
 .text.RadioSend
                0x08005208       0x54 ./objects/radio.o
                0x08005208                RadioSend
 .text.RadioSleep
                0x0800525c       0x14 ./objects/radio.o
                0x0800525c                RadioSleep
 .text.RadioSetRxDutyCycle
                0x08005270        0x4 ./objects/radio.o
                0x08005270                RadioSetRxDutyCycle
 .text.RadioStartCad
                0x08005274       0x6c ./objects/radio.o
                0x08005274                RadioStartCad
 .text.RadioSetTxContinuousWave
                0x080052e0       0x4c ./objects/radio.o
                0x080052e0                RadioSetTxContinuousWave
 .text.RadioWriteBuffer
                0x0800532c        0x4 ./objects/radio.o
                0x0800532c                RadioWriteBuffer
 .text.RadioReadBuffer
                0x08005330        0x4 ./objects/radio.o
                0x08005330                RadioReadBuffer
 .text.RadioGetWakeupTime
                0x08005334        0xa ./objects/radio.o
                0x08005334                RadioGetWakeupTime
 *fill*         0x0800533e        0x2 
 .text.RadioOnCadTimeoutIrq
                0x08005340       0x20 ./objects/radio.o
                0x08005340                RadioOnCadTimeoutIrq
 .text.RadioGetFskBandwidthRegValue
                0x08005360       0x34 ./objects/radio.o
 .text.RadioSetMaxPayloadLength
                0x08005394       0x28 ./objects/radio.o
                0x08005394                RadioSetMaxPayloadLength
 .text.RadioRx  0x080053bc       0x44 ./objects/radio.o
                0x080053bc                RadioRx
 .text.RadioRxBoosted
                0x08005400       0x40 ./objects/radio.o
                0x08005400                RadioRxBoosted
 .text.RadioIrqProcess
                0x08005440      0x160 ./objects/radio.o
                0x08005440                RadioIrqProcess
 .text.RadioSetPublicNetwork
                0x080055a0       0x3c ./objects/radio.o
                0x080055a0                RadioSetPublicNetwork
 .text.RadioSetModem.part.0
                0x080055dc       0x24 ./objects/radio.o
 .text.RadioSetModem
                0x08005600       0x20 ./objects/radio.o
                0x08005600                RadioSetModem
 .text.RadioIsChannelFree
                0x08005620       0x4e ./objects/radio.o
                0x08005620                RadioIsChannelFree
 .text.RadioRandom
                0x0800566e       0x3c ./objects/radio.o
                0x0800566e                RadioRandom
 *fill*         0x080056aa        0x2 
 .text.RadioSymbTime
                0x080056ac       0x2c ./objects/radio.o
                0x080056ac                RadioSymbTime
 .text.RadioSetRxConfig
                0x080056d8      0x21c ./objects/radio.o
                0x080056d8                RadioSetRxConfig
 *fill*         0x080058f4        0x4 
 .text.RadioSetTxConfig
                0x080058f8      0x198 ./objects/radio.o
                0x080058f8                RadioSetTxConfig
 .text.RadioTimeOnAir
                0x08005a90      0x190 ./objects/radio.o
                0x08005a90                RadioTimeOnAir
 .text.RadioOnDioIrq
                0x08005c20       0x24 ./objects/radio.o
                0x08005c20                RadioOnDioIrq
 .text.SX126xGetOperatingMode
                0x08005c44        0xc ./objects/sx126x.o
                0x08005c44                SX126xGetOperatingMode
 .text.SX126xSetOperatingMode
                0x08005c50        0xc ./objects/sx126x.o
                0x08005c50                SX126xSetOperatingMode
 .text.SX126xCheckDeviceReady
                0x08005c5c       0x24 ./objects/sx126x.o
                0x08005c5c                SX126xCheckDeviceReady
 .text.SX126xSetPayload
                0x08005c80        0xa ./objects/sx126x.o
                0x08005c80                SX126xSetPayload
 .text.SX126xSetSyncWord
                0x08005c8a       0x12 ./objects/sx126x.o
                0x08005c8a                SX126xSetSyncWord
 .text.SX126xSetCrcSeed
                0x08005c9c       0x24 ./objects/sx126x.o
                0x08005c9c                SX126xSetCrcSeed
 .text.SX126xSetCrcPolynomial
                0x08005cc0       0x24 ./objects/sx126x.o
                0x08005cc0                SX126xSetCrcPolynomial
 .text.SX126xSetWhiteningSeed
                0x08005ce4       0x38 ./objects/sx126x.o
                0x08005ce4                SX126xSetWhiteningSeed
 .text.SX126xSetSleep
                0x08005d1c       0x24 ./objects/sx126x.o
                0x08005d1c                SX126xSetSleep
 .text.SX126xSetStandby
                0x08005d40       0x2c ./objects/sx126x.o
                0x08005d40                SX126xSetStandby
 .text.SX126xSetTx
                0x08005d6c       0x2c ./objects/sx126x.o
                0x08005d6c                SX126xSetTx
 .text.SX126xSendPayload
                0x08005d98       0x12 ./objects/sx126x.o
                0x08005d98                SX126xSendPayload
 *fill*         0x08005daa        0x2 
 .text.SX126xSetRx
                0x08005dac       0x2c ./objects/sx126x.o
                0x08005dac                SX126xSetRx
 .text.SX126xSetRxBoosted
                0x08005dd8       0x38 ./objects/sx126x.o
                0x08005dd8                SX126xSetRxBoosted
 .text.SX126xSetRxDutyCycle
                0x08005e10       0x38 ./objects/sx126x.o
                0x08005e10                SX126xSetRxDutyCycle
 .text.SX126xSetCad
                0x08005e48       0x18 ./objects/sx126x.o
                0x08005e48                SX126xSetCad
 .text.SX126xSetTxContinuousWave
                0x08005e60        0xa ./objects/sx126x.o
                0x08005e60                SX126xSetTxContinuousWave
 .text.SX126xSetStopRxTimerOnPreambleDetect
                0x08005e6a       0x18 ./objects/sx126x.o
                0x08005e6a                SX126xSetStopRxTimerOnPreambleDetect
 .text.SX126xSetLoRaSymbNumTimeout
                0x08005e82       0x18 ./objects/sx126x.o
                0x08005e82                SX126xSetLoRaSymbNumTimeout
 .text.SX126xSetRegulatorMode
                0x08005e9a       0x18 ./objects/sx126x.o
                0x08005e9a                SX126xSetRegulatorMode
 *fill*         0x08005eb2        0x2 
 .text.SX126xCalibrateImage
                0x08005eb4       0x64 ./objects/sx126x.o
                0x08005eb4                SX126xCalibrateImage
 .text.SX126xSetPaConfig
                0x08005f18       0x24 ./objects/sx126x.o
                0x08005f18                SX126xSetPaConfig
 .text.SX126xSetDioIrqParams
                0x08005f3c       0x2a ./objects/sx126x.o
                0x08005f3c                SX126xSetDioIrqParams
 .text.SX126xGetIrqStatus
                0x08005f66       0x1e ./objects/sx126x.o
                0x08005f66                SX126xGetIrqStatus
 .text.SX126xSetDio2AsRfSwitchCtrl
                0x08005f84       0x18 ./objects/sx126x.o
                0x08005f84                SX126xSetDio2AsRfSwitchCtrl
 .text.SX126xInit
                0x08005f9c       0x28 ./objects/sx126x.o
                0x08005f9c                SX126xInit
 *fill*         0x08005fc4        0x4 
 .text.SX126xSetRfFrequency
                0x08005fc8       0x4c ./objects/sx126x.o
                0x08005fc8                SX126xSetRfFrequency
 .text.SX126xSetPacketType
                0x08006014       0x20 ./objects/sx126x.o
                0x08006014                SX126xSetPacketType
 .text.SX126xGetPacketType
                0x08006034        0xc ./objects/sx126x.o
                0x08006034                SX126xGetPacketType
 .text.SX126xSetTxParams
                0x08006040       0xbc ./objects/sx126x.o
                0x08006040                SX126xSetTxParams
 *fill*         0x080060fc        0x4 
 .text.SX126xSetModulationParams
                0x08006100       0xb4 ./objects/sx126x.o
                0x08006100                SX126xSetModulationParams
 .text.SX126xSetPacketParams
                0x080061b4       0xac ./objects/sx126x.o
                0x080061b4                SX126xSetPacketParams
 .text.SX126xSetCadParams
                0x08006260       0x3c ./objects/sx126x.o
                0x08006260                SX126xSetCadParams
 .text.SX126xSetBufferBaseAddress
                0x0800629c       0x1a ./objects/sx126x.o
                0x0800629c                SX126xSetBufferBaseAddress
 .text.SX126xGetRssiInst
                0x080062b6       0x1a ./objects/sx126x.o
                0x080062b6                SX126xGetRssiInst
 .text.SX126xGetRxBufferStatus
                0x080062d0       0x48 ./objects/sx126x.o
                0x080062d0                SX126xGetRxBufferStatus
 .text.SX126xGetPayload
                0x08006318       0x32 ./objects/sx126x.o
                0x08006318                SX126xGetPayload
 *fill*         0x0800634a        0x2 
 .text.SX126xGetPacketStatus
                0x0800634c       0x80 ./objects/sx126x.o
                0x0800634c                SX126xGetPacketStatus
 .text.SX126xClearIrqStatus
                0x080063cc       0x18 ./objects/sx126x.o
                0x080063cc                SX126xClearIrqStatus
 .text.RtcInit  0x080063e4       0x30 ./objects/rtc-board.o
                0x080063e4                RtcInit
 .text.RtcSetTimeout
                0x08006414       0x8c ./objects/rtc-board.o
                0x08006414                RtcSetTimeout
 .text.RtcStopTimeout
                0x080064a0       0x14 ./objects/rtc-board.o
                0x080064a0                RtcStopTimeout
 .text.RtcGetTimerContext
                0x080064b4        0xc ./objects/rtc-board.o
                0x080064b4                RtcGetTimerContext
 .text.RtcGetTimerValue
                0x080064c0      0x120 ./objects/rtc-board.o
                0x080064c0                RtcGetTimerValue
 .text.RtcSetTimerContext
                0x080065e0       0x18 ./objects/rtc-board.o
                0x080065e0                RtcSetTimerContext
 .text.RtcGetElapsedTime
                0x080065f8       0x18 ./objects/rtc-board.o
                0x080065f8                RtcGetElapsedTime
 .text.RtcEnterLowPowerStopMode
                0x08006610       0x20 ./objects/rtc-board.o
                0x08006610                RtcEnterLowPowerStopMode
 .text.RtcOnIrq
                0x08006630       0x32 ./objects/rtc-board.o
                0x08006630                RtcOnIrq
 .text.BoardDisableIrq
                0x08006662        0x4 ./objects/sx1262-board.o
                0x08006662                BoardDisableIrq
 .text.BoardEnableIrq
                0x08006666        0x4 ./objects/sx1262-board.o
                0x08006666                BoardEnableIrq
 *fill*         0x0800666a        0x2 
 .text.SpiInOut
                0x0800666c       0x18 ./objects/sx1262-board.o
                0x0800666c                SpiInOut
 .text.SX126xLoracInit
                0x08006684       0x5c ./objects/sx1262-board.o
                0x08006684                SX126xLoracInit
 .text.SX126xGetBoardTcxoWakeupTime
                0x080066e0        0x4 ./objects/sx1262-board.o
                0x080066e0                SX126xGetBoardTcxoWakeupTime
 .text.SX126xReset
                0x080066e4       0x40 ./objects/sx1262-board.o
                0x080066e4                SX126xReset
 .text.SX126xWaitOnBusy
                0x08006724       0x18 ./objects/sx1262-board.o
                0x08006724                SX126xWaitOnBusy
 .text.SX126xWakeup
                0x0800673c       0x30 ./objects/sx1262-board.o
                0x0800673c                SX126xWakeup
 .text.SX126xWriteCommand
                0x0800676c       0x44 ./objects/sx1262-board.o
                0x0800676c                SX126xWriteCommand
 .text.SX126xReadCommand
                0x080067b0       0x48 ./objects/sx1262-board.o
                0x080067b0                SX126xReadCommand
 .text.SX126xWriteRegisters
                0x080067f8       0x48 ./objects/sx1262-board.o
                0x080067f8                SX126xWriteRegisters
 .text.SX126xWriteRegister
                0x08006840       0x16 ./objects/sx1262-board.o
                0x08006840                SX126xWriteRegister
 *fill*         0x08006856        0x2 
 .text.SX126xReadRegisters
                0x08006858       0x50 ./objects/sx1262-board.o
                0x08006858                SX126xReadRegisters
 .text.SX126xReadRegister
                0x080068a8       0x16 ./objects/sx1262-board.o
                0x080068a8                SX126xReadRegister
 *fill*         0x080068be        0x2 
 .text.SX126xWriteBuffer
                0x080068c0       0x48 ./objects/sx1262-board.o
                0x080068c0                SX126xWriteBuffer
 .text.SX126xReadBuffer
                0x08006908       0x50 ./objects/sx1262-board.o
                0x08006908                SX126xReadBuffer
 .text.SX126xSetRfTxPower
                0x08006958        0x6 ./objects/sx1262-board.o
                0x08006958                SX126xSetRfTxPower
 .text.SX126xGetPaSelect
                0x0800695e        0x4 ./objects/sx1262-board.o
                0x0800695e                SX126xGetPaSelect
 *fill*         0x08006962        0x2 
 .text.SX126xAntSwOn
                0x08006964       0x10 ./objects/sx1262-board.o
                0x08006964                SX126xAntSwOn
 .text.SX126xAntSwOff
                0x08006974       0x10 ./objects/sx1262-board.o
                0x08006974                SX126xAntSwOff
 .text.rand1    0x08006984       0x28 ./objects/utilities.o
                0x08006984                rand1
 .text.srand1   0x080069ac        0xc ./objects/utilities.o
                0x080069ac                srand1
 .text.randr    0x080069b8       0x1a ./objects/utilities.o
                0x080069b8                randr
 .text.memcpy1  0x080069d2       0x14 ./objects/utilities.o
                0x080069d2                memcpy1
 .text.memcpyr  0x080069e6       0x14 ./objects/utilities.o
                0x080069e6                memcpyr
 .text.memset1  0x080069fa        0xe ./objects/utilities.o
                0x080069fa                memset1
 .text.SetMlmeScheduleUplinkIndication
                0x08006a08       0x1c ./objects/loramac.o
 .text.AddMacCommand
                0x08006a24      0x17c ./objects/loramac.o
 .text.ResetMacParameters
                0x08006ba0       0x8c ./objects/loramac.o
 .text.ValidatePayloadLength
                0x08006c2c       0x5c ./objects/loramac.o
 .text.OnAckTimeoutTimerEvent
                0x08006c88       0x44 ./objects/loramac.o
 .text.PrepareRxDoneAbort
                0x08006ccc       0x5c ./objects/loramac.o
 .text.ProcessMacCommands
                0x08006d28      0x478 ./objects/loramac.o
 .text.OnRadioRxDone
                0x080071a0      0x5a8 ./objects/loramac.o
 .text.RxWindowSetup
                0x08007748       0x14 ./objects/loramac.o
 .text.OnRxWindow1TimerEvent
                0x0800775c       0x74 ./objects/loramac.o
 .text.OnRxWindow2TimerEvent
                0x080077d0       0x74 ./objects/loramac.o
 .text.OpenContinuousRx2Window
                0x08007844       0x14 ./objects/loramac.o
 .text.OnRadioRxTimeout
                0x08007858       0xe0 ./objects/loramac.o
 .text.OnRadioTxTimeout
                0x08007938       0x3c ./objects/loramac.o
 .text.OnRadioRxError
                0x08007974       0xe0 ./objects/loramac.o
 .text.OnRadioTxDone
                0x08007a54      0x128 ./objects/loramac.o
 .text.PrepareFrame
                0x08007b7c      0x38c ./objects/loramac.o
                0x08007b7c                PrepareFrame
 .text.SendFrameOnChannel
                0x08007f08      0x114 ./objects/loramac.o
                0x08007f08                SendFrameOnChannel
 .text.ScheduleTx
                0x0800801c      0x1a4 ./objects/loramac.o
 .text.Send     0x080081c0       0x44 ./objects/loramac.o
                0x080081c0                Send
 .text.OnTxDelayedTimerEvent
                0x08008204       0x7c ./objects/loramac.o
 .text.OnMacStateCheckTimerEvent
                0x08008280      0x32c ./objects/loramac.o
 .text.SetTxContinuousWave
                0x080085ac       0x60 ./objects/loramac.o
                0x080085ac                SetTxContinuousWave
 .text.SetTxContinuousWave1
                0x0800860c       0x40 ./objects/loramac.o
                0x0800860c                SetTxContinuousWave1
 .text.LoRaMacInitialization
                0x0800864c      0x2f4 ./objects/loramac.o
                0x0800864c                LoRaMacInitialization
 .text.LoRaMacQueryTxPossible
                0x08008940       0xdc ./objects/loramac.o
                0x08008940                LoRaMacQueryTxPossible
 .text.LoRaMacMibGetRequestConfirm
                0x08008a1c      0x150 ./objects/loramac.o
                0x08008a1c                LoRaMacMibGetRequestConfirm
 .text.LoRaMacMulticastChannelLink
                0x08008b6c       0x40 ./objects/loramac.o
                0x08008b6c                LoRaMacMulticastChannelLink
 .text.LoRaMacMulticastChannelUnlink
                0x08008bac       0x44 ./objects/loramac.o
                0x08008bac                LoRaMacMulticastChannelUnlink
 .text.LoRaMacMibSetRequestConfirm
                0x08008bf0      0x350 ./objects/loramac.o
                0x08008bf0                LoRaMacMibSetRequestConfirm
 .text.LoRaMacMlmeRequest
                0x08008f40      0x218 ./objects/loramac.o
                0x08008f40                LoRaMacMlmeRequest
 .text.LoRaMacMcpsRequest
                0x08009158      0x130 ./objects/loramac.o
                0x08009158                LoRaMacMcpsRequest
 .text.LoRaMacClassBInit
                0x08009288        0x2 ./objects/loramacclassb.o
                0x08009288                LoRaMacClassBInit
 .text.LoRaMacClassBSetBeaconState
                0x0800928a        0x2 ./objects/loramacclassb.o
                0x0800928a                LoRaMacClassBSetBeaconState
 .text.LoRaMacClassBSetPingSlotState
                0x0800928c        0x2 ./objects/loramacclassb.o
                0x0800928c                LoRaMacClassBSetPingSlotState
 .text.LoRaMacClassBSetMulticastSlotState
                0x0800928e        0x2 ./objects/loramacclassb.o
                0x0800928e                LoRaMacClassBSetMulticastSlotState
 .text.LoRaMacClassBIsAcquisitionInProgress
                0x08009290        0x4 ./objects/loramacclassb.o
                0x08009290                LoRaMacClassBIsAcquisitionInProgress
 .text.LoRaMacClassBBeaconTimerEvent
                0x08009294        0x2 ./objects/loramacclassb.o
                0x08009294                LoRaMacClassBBeaconTimerEvent
 .text.LoRaMacClassBPingSlotTimerEvent
                0x08009296        0x2 ./objects/loramacclassb.o
                0x08009296                LoRaMacClassBPingSlotTimerEvent
 .text.LoRaMacClassBMulticastSlotTimerEvent
                0x08009298        0x2 ./objects/loramacclassb.o
                0x08009298                LoRaMacClassBMulticastSlotTimerEvent
 .text.LoRaMacClassBRxBeacon
                0x0800929a        0x4 ./objects/loramacclassb.o
                0x0800929a                LoRaMacClassBRxBeacon
 .text.LoRaMacClassBIsBeaconExpected
                0x0800929e        0x4 ./objects/loramacclassb.o
                0x0800929e                LoRaMacClassBIsBeaconExpected
 .text.LoRaMacClassBIsPingExpected
                0x080092a2        0x4 ./objects/loramacclassb.o
                0x080092a2                LoRaMacClassBIsPingExpected
 .text.LoRaMacClassBIsMulticastExpected
                0x080092a6        0x4 ./objects/loramacclassb.o
                0x080092a6                LoRaMacClassBIsMulticastExpected
 .text.LoRaMacClassBIsBeaconModeActive
                0x080092aa        0x4 ./objects/loramacclassb.o
                0x080092aa                LoRaMacClassBIsBeaconModeActive
 .text.LoRaMacClassBSetPingSlotInfo
                0x080092ae        0x2 ./objects/loramacclassb.o
                0x080092ae                LoRaMacClassBSetPingSlotInfo
 .text.LoRaMacClassBHaltBeaconing
                0x080092b0        0x2 ./objects/loramacclassb.o
                0x080092b0                LoRaMacClassBHaltBeaconing
 .text.LoRaMacClassBResumeBeaconing
                0x080092b2        0x2 ./objects/loramacclassb.o
                0x080092b2                LoRaMacClassBResumeBeaconing
 .text.LoRaMacClassBSwitchClass
                0x080092b4        0x4 ./objects/loramacclassb.o
                0x080092b4                LoRaMacClassBSwitchClass
 .text.LoRaMacClassBMibGetRequestConfirm
                0x080092b8        0x4 ./objects/loramacclassb.o
                0x080092b8                LoRaMacClassBMibGetRequestConfirm
 .text.LoRaMacMibClassBSetRequestConfirm
                0x080092bc        0x4 ./objects/loramacclassb.o
                0x080092bc                LoRaMacMibClassBSetRequestConfirm
 .text.LoRaMacClassBPingSlotInfoAns
                0x080092c0        0x2 ./objects/loramacclassb.o
                0x080092c0                LoRaMacClassBPingSlotInfoAns
 .text.LoRaMacClassBPingSlotChannelReq
                0x080092c2        0x4 ./objects/loramacclassb.o
                0x080092c2                LoRaMacClassBPingSlotChannelReq
 .text.LoRaMacClassBBeaconTimingAns
                0x080092c6        0x2 ./objects/loramacclassb.o
                0x080092c6                LoRaMacClassBBeaconTimingAns
 .text.LoRaMacClassBDeviceTimeAns
                0x080092c8        0x2 ./objects/loramacclassb.o
                0x080092c8                LoRaMacClassBDeviceTimeAns
 .text.LoRaMacClassBBeaconFreqReq
                0x080092ca        0x4 ./objects/loramacclassb.o
                0x080092ca                LoRaMacClassBBeaconFreqReq
 .text.LoRaMacClassBIsUplinkCollision
                0x080092ce        0x6 ./objects/loramacclassb.o
                0x080092ce                LoRaMacClassBIsUplinkCollision
 .text.LoRaMacClassBStopRxSlots
                0x080092d4        0x2 ./objects/loramacclassb.o
                0x080092d4                LoRaMacClassBStopRxSlots
 .text.LoRaMacClassBSetMulticastPeriodicity
                0x080092d6        0x2 ./objects/loramacclassb.o
                0x080092d6                LoRaMacClassBSetMulticastPeriodicity
 .text.LoRaMacConfirmQueueInit
                0x080092d8       0x34 ./objects/loramacconfirmqueue.o
                0x080092d8                LoRaMacConfirmQueueInit
 .text.LoRaMacConfirmQueueAdd
                0x0800930c       0x44 ./objects/loramacconfirmqueue.o
                0x0800930c                LoRaMacConfirmQueueAdd
 .text.LoRaMacConfirmQueueRemoveLast
                0x08009350       0x28 ./objects/loramacconfirmqueue.o
                0x08009350                LoRaMacConfirmQueueRemoveLast
 .text.LoRaMacConfirmQueueRemoveFirst
                0x08009378       0x28 ./objects/loramacconfirmqueue.o
                0x08009378                LoRaMacConfirmQueueRemoveFirst
 .text.LoRaMacConfirmQueueSetStatus
                0x080093a0       0x40 ./objects/loramacconfirmqueue.o
                0x080093a0                LoRaMacConfirmQueueSetStatus
 .text.LoRaMacConfirmQueueGetStatus
                0x080093e0       0x3c ./objects/loramacconfirmqueue.o
                0x080093e0                LoRaMacConfirmQueueGetStatus
 .text.LoRaMacConfirmQueueSetStatusCmn
                0x0800941c       0x44 ./objects/loramacconfirmqueue.o
                0x0800941c                LoRaMacConfirmQueueSetStatusCmn
 .text.LoRaMacConfirmQueueGetStatusCmn
                0x08009460        0xc ./objects/loramacconfirmqueue.o
                0x08009460                LoRaMacConfirmQueueGetStatusCmn
 .text.LoRaMacConfirmQueueIsCmdActive
                0x0800946c       0x38 ./objects/loramacconfirmqueue.o
                0x0800946c                LoRaMacConfirmQueueIsCmdActive
 .text.LoRaMacConfirmQueueHandleCb
                0x080094a4       0x60 ./objects/loramacconfirmqueue.o
                0x080094a4                LoRaMacConfirmQueueHandleCb
 .text.LoRaMacConfirmQueueGetCnt
                0x08009504        0xc ./objects/loramacconfirmqueue.o
                0x08009504                LoRaMacConfirmQueueGetCnt
 .text.LoRaMacConfirmQueueIsFull
                0x08009510       0x14 ./objects/loramacconfirmqueue.o
                0x08009510                LoRaMacConfirmQueueIsFull
 .text.LoRaMacComputeMic
                0x08009524       0x70 ./objects/loramaccrypto.o
                0x08009524                LoRaMacComputeMic
 .text.LoRaMacPayloadEncrypt
                0x08009594       0xe0 ./objects/loramaccrypto.o
                0x08009594                LoRaMacPayloadEncrypt
 .text.LoRaMacPayloadDecrypt
                0x08009674       0x10 ./objects/loramaccrypto.o
                0x08009674                LoRaMacPayloadDecrypt
 .text.LoRaMacJoinComputeMic
                0x08009684       0x3c ./objects/loramaccrypto.o
                0x08009684                LoRaMacJoinComputeMic
 .text.LoRaMacJoinDecrypt
                0x080096c0       0x3e ./objects/loramaccrypto.o
                0x080096c0                LoRaMacJoinDecrypt
 .text.LoRaMacJoinComputeSKeys
                0x080096fe       0x86 ./objects/loramaccrypto.o
                0x080096fe                LoRaMacJoinComputeSKeys
 .text.RegionIsActive
                0x08009784        0x8 ./objects/region.o
                0x08009784                RegionIsActive
 .text.RegionGetPhyParam
                0x0800978c       0x14 ./objects/region.o
                0x0800978c                RegionGetPhyParam
 .text.RegionSetBandTxDone
                0x080097a0        0xc ./objects/region.o
                0x080097a0                RegionSetBandTxDone
 .text.RegionInitDefaults
                0x080097ac        0xc ./objects/region.o
                0x080097ac                RegionInitDefaults
 .text.RegionVerify
                0x080097b8       0x12 ./objects/region.o
                0x080097b8                RegionVerify
 .text.RegionApplyCFList
                0x080097ca        0xc ./objects/region.o
                0x080097ca                RegionApplyCFList
 .text.RegionChanMaskSet
                0x080097d6        0xe ./objects/region.o
                0x080097d6                RegionChanMaskSet
 .text.RegionAdrNext
                0x080097e4       0x20 ./objects/region.o
                0x080097e4                RegionAdrNext
 .text.RegionComputeRxWindowParameters
                0x08009804       0x1e ./objects/region.o
                0x08009804                RegionComputeRxWindowParameters
 .text.RegionRxConfig
                0x08009822       0x12 ./objects/region.o
                0x08009822                RegionRxConfig
 .text.RegionTxConfig
                0x08009834       0x1e ./objects/region.o
                0x08009834                RegionTxConfig
 .text.RegionLinkAdrReq
                0x08009852       0x20 ./objects/region.o
                0x08009852                RegionLinkAdrReq
 .text.RegionRxParamSetupReq
                0x08009872        0xe ./objects/region.o
                0x08009872                RegionRxParamSetupReq
 .text.RegionNewChannelReq
                0x08009880        0xe ./objects/region.o
                0x08009880                RegionNewChannelReq
 .text.RegionTxParamSetupReq
                0x0800988e        0xe ./objects/region.o
                0x0800988e                RegionTxParamSetupReq
 .text.RegionDlChannelReq
                0x0800989c        0xe ./objects/region.o
                0x0800989c                RegionDlChannelReq
 .text.RegionAlternateDr
                0x080098aa        0xe ./objects/region.o
                0x080098aa                RegionAlternateDr
 .text.RegionCalcBackOff
                0x080098b8        0xc ./objects/region.o
                0x080098b8                RegionCalcBackOff
 .text.RegionNextChannel
                0x080098c4       0x20 ./objects/region.o
                0x080098c4                RegionNextChannel
 .text.RegionSetContinuousWave
                0x080098e4        0xc ./objects/region.o
                0x080098e4                RegionSetContinuousWave
 .text.RegionApplyDrOffset
                0x080098f0       0x1e ./objects/region.o
                0x080098f0                RegionApplyDrOffset
 *fill*         0x0800990e        0x2 
 .text.RegionCommonGetJoinDc
                0x08009910       0x30 ./objects/regioncommon.o
                0x08009910                RegionCommonGetJoinDc
 .text.RegionCommonChanVerifyDr
                0x08009940       0x66 ./objects/regioncommon.o
                0x08009940                RegionCommonChanVerifyDr
 .text.RegionCommonValueInRange
                0x080099a6       0x12 ./objects/regioncommon.o
                0x080099a6                RegionCommonValueInRange
 .text.RegionCommonCountChannels
                0x080099b8       0x3c ./objects/regioncommon.o
                0x080099b8                RegionCommonCountChannels
 .text.RegionCommonChanMaskCopy
                0x080099f4       0x1e ./objects/regioncommon.o
                0x080099f4                RegionCommonChanMaskCopy
 .text.RegionCommonSetBandTxDone
                0x08009a12        0xe ./objects/regioncommon.o
                0x08009a12                RegionCommonSetBandTxDone
 .text.RegionCommonUpdateBandTimeOff
                0x08009a20      0x10a ./objects/regioncommon.o
                0x08009a20                RegionCommonUpdateBandTimeOff
 .text.RegionCommonParseLinkAdrReq
                0x08009b2a       0x34 ./objects/regioncommon.o
                0x08009b2a                RegionCommonParseLinkAdrReq
 *fill*         0x08009b5e        0x2 
 .text.RegionCommonComputeSymbolTimeLoRa
                0x08009b60       0x34 ./objects/regioncommon.o
                0x08009b60                RegionCommonComputeSymbolTimeLoRa
 .text.RegionCommonComputeRxWindowParameters
                0x08009b94       0xac ./objects/regioncommon.o
                0x08009b94                RegionCommonComputeRxWindowParameters
 .text.RegionCommonComputeTxPower
                0x08009c40       0x30 ./objects/regioncommon.o
                0x08009c40                RegionCommonComputeTxPower
 .text.RegionCN470GetPhyParam
                0x08009c70      0x108 ./objects/regioncn470.o
                0x08009c70                RegionCN470GetPhyParam
 .text.RegionCN470SetBandTxDone
                0x08009d78       0x2c ./objects/regioncn470.o
                0x08009d78                RegionCN470SetBandTxDone
 .text.RegionCN470InitDefaults
                0x08009da4       0x6c ./objects/regioncn470.o
                0x08009da4                RegionCN470InitDefaults
 .text.RegionCN470Verify
                0x08009e10       0x3c ./objects/regioncn470.o
                0x08009e10                RegionCN470Verify
 .text.RegionCN470ApplyCFList
                0x08009e4c        0x2 ./objects/regioncn470.o
                0x08009e4c                RegionCN470ApplyCFList
 *fill*         0x08009e4e        0x2 
 .text.RegionCN470ChanMaskSet
                0x08009e50       0x34 ./objects/regioncn470.o
                0x08009e50                RegionCN470ChanMaskSet
 .text.RegionCN470AdrNext
                0x08009e84       0x80 ./objects/regioncn470.o
                0x08009e84                RegionCN470AdrNext
 .text.RegionCN470ComputeRxWindowParameters
                0x08009f04       0x74 ./objects/regioncn470.o
                0x08009f04                RegionCN470ComputeRxWindowParameters
 .text.RegionCN470RxConfig
                0x08009f78       0xac ./objects/regioncn470.o
                0x08009f78                RegionCN470RxConfig
 .text.RegionCN470TxConfig
                0x0800a024       0xb8 ./objects/regioncn470.o
                0x0800a024                RegionCN470TxConfig
 .text.RegionCN470LinkAdrReq
                0x0800a0dc      0x118 ./objects/regioncn470.o
                0x0800a0dc                RegionCN470LinkAdrReq
 .text.RegionCN470RxParamSetupReq
                0x0800a1f4       0x68 ./objects/regioncn470.o
                0x0800a1f4                RegionCN470RxParamSetupReq
 .text.RegionCN470NewChannelReq
                0x0800a25c        0x4 ./objects/regioncn470.o
                0x0800a25c                RegionCN470NewChannelReq
 .text.RegionCN470TxParamSetupReq
                0x0800a260        0x6 ./objects/regioncn470.o
                0x0800a260                RegionCN470TxParamSetupReq
 .text.RegionCN470DlChannelReq
                0x0800a266        0x4 ./objects/regioncn470.o
                0x0800a266                RegionCN470DlChannelReq
 .text.RegionCN470AlternateDr
                0x0800a26a       0x3e ./objects/regioncn470.o
                0x0800a26a                RegionCN470AlternateDr
 .text.RegionCN470CalcBackOff
                0x0800a2a8       0x64 ./objects/regioncn470.o
                0x0800a2a8                RegionCN470CalcBackOff
 .text.RegionCN470NextChannel
                0x0800a30c      0x158 ./objects/regioncn470.o
                0x0800a30c                RegionCN470NextChannel
 .text.RegionCN470SetContinuousWave
                0x0800a464       0x4c ./objects/regioncn470.o
                0x0800a464                RegionCN470SetContinuousWave
 .text.RegionCN470ApplyDrOffset
                0x0800a4b0        0xc ./objects/regioncn470.o
                0x0800a4b0                RegionCN470ApplyDrOffset
 *fill*         0x0800a4bc        0x4 
 .text.ceil     0x0800a4c0       0xf8 d:/program files/gnu arm embedded toolchain/9 2020-q2-update/bin/../lib/gcc/arm-none-eabi/9.3.1/../../../../arm-none-eabi/lib/thumb/v7e-m/nofp\libm.a(lib_a-s_ceil.o)
                0x0800a4c0                ceil
 .text.floor    0x0800a5b8       0xf8 d:/program files/gnu arm embedded toolchain/9 2020-q2-update/bin/../lib/gcc/arm-none-eabi/9.3.1/../../../../arm-none-eabi/lib/thumb/v7e-m/nofp\libm.a(lib_a-s_floor.o)
                0x0800a5b8                floor
 .text.rint     0x0800a6b0      0x120 d:/program files/gnu arm embedded toolchain/9 2020-q2-update/bin/../lib/gcc/arm-none-eabi/9.3.1/../../../../arm-none-eabi/lib/thumb/v7e-m/nofp\libm.a(lib_a-s_rint.o)
                0x0800a6b0                rint
 .text.round    0x0800a7d0       0x94 d:/program files/gnu arm embedded toolchain/9 2020-q2-update/bin/../lib/gcc/arm-none-eabi/9.3.1/../../../../arm-none-eabi/lib/thumb/v7e-m/nofp\libm.a(lib_a-s_round.o)
                0x0800a7d0                round
 .text.pow      0x0800a864      0x180 d:/program files/gnu arm embedded toolchain/9 2020-q2-update/bin/../lib/gcc/arm-none-eabi/9.3.1/../../../../arm-none-eabi/lib/thumb/v7e-m/nofp\libm.a(lib_a-w_pow.o)
                0x0800a864                pow
 *fill*         0x0800a9e4        0x4 
 .text.__ieee754_pow
                0x0800a9e8      0xb00 d:/program files/gnu arm embedded toolchain/9 2020-q2-update/bin/../lib/gcc/arm-none-eabi/9.3.1/../../../../arm-none-eabi/lib/thumb/v7e-m/nofp\libm.a(lib_a-e_pow.o)
                0x0800a9e8                __ieee754_pow
 .text.__ieee754_sqrt
                0x0800b4e8      0x188 d:/program files/gnu arm embedded toolchain/9 2020-q2-update/bin/../lib/gcc/arm-none-eabi/9.3.1/../../../../arm-none-eabi/lib/thumb/v7e-m/nofp\libm.a(lib_a-e_sqrt.o)
                0x0800b4e8                __ieee754_sqrt
 .text.fabs     0x0800b670        0x8 d:/program files/gnu arm embedded toolchain/9 2020-q2-update/bin/../lib/gcc/arm-none-eabi/9.3.1/../../../../arm-none-eabi/lib/thumb/v7e-m/nofp\libm.a(lib_a-s_fabs.o)
                0x0800b670                fabs
 .text.finite   0x0800b678        0xc d:/program files/gnu arm embedded toolchain/9 2020-q2-update/bin/../lib/gcc/arm-none-eabi/9.3.1/../../../../arm-none-eabi/lib/thumb/v7e-m/nofp\libm.a(lib_a-s_finite.o)
                0x0800b678                finite
 .text.nan      0x0800b684        0xc d:/program files/gnu arm embedded toolchain/9 2020-q2-update/bin/../lib/gcc/arm-none-eabi/9.3.1/../../../../arm-none-eabi/lib/thumb/v7e-m/nofp\libm.a(lib_a-s_nan.o)
                0x0800b684                nan
 .text.scalbn   0x0800b690       0xf4 d:/program files/gnu arm embedded toolchain/9 2020-q2-update/bin/../lib/gcc/arm-none-eabi/9.3.1/../../../../arm-none-eabi/lib/thumb/v7e-m/nofp\libm.a(lib_a-s_scalbn.o)
                0x0800b690                scalbn
 .text.__errno  0x0800b784        0xc d:/program files/gnu arm embedded toolchain/9 2020-q2-update/bin/../lib/gcc/arm-none-eabi/9.3.1/../../../../arm-none-eabi/lib/thumb/v7e-m/nofp\libc.a(lib_a-errno.o)
                0x0800b784                __errno
 .text.__libc_init_array
                0x0800b790       0x48 d:/program files/gnu arm embedded toolchain/9 2020-q2-update/bin/../lib/gcc/arm-none-eabi/9.3.1/../../../../arm-none-eabi/lib/thumb/v7e-m/nofp\libc.a(lib_a-init.o)
                0x0800b790                __libc_init_array
 .text.memset   0x0800b7d8       0xa0 d:/program files/gnu arm embedded toolchain/9 2020-q2-update/bin/../lib/gcc/arm-none-eabi/9.3.1/../../../../arm-none-eabi/lib/thumb/v7e-m/nofp\libc.a(lib_a-memset.o)
                0x0800b7d8                memset
 .text._vsnprintf_r
                0x0800b878       0x70 d:/program files/gnu arm embedded toolchain/9 2020-q2-update/bin/../lib/gcc/arm-none-eabi/9.3.1/../../../../arm-none-eabi/lib/thumb/v7e-m/nofp\libc.a(lib_a-vsnprintf.o)
                0x0800b878                _vsnprintf_r
 .text.vsnprintf
                0x0800b8e8       0x20 d:/program files/gnu arm embedded toolchain/9 2020-q2-update/bin/../lib/gcc/arm-none-eabi/9.3.1/../../../../arm-none-eabi/lib/thumb/v7e-m/nofp\libc.a(lib_a-vsnprintf.o)
                0x0800b8e8                vsnprintf
 .text.startup.register_fini
                0x0800b908       0x14 d:/program files/gnu arm embedded toolchain/9 2020-q2-update/bin/../lib/gcc/arm-none-eabi/9.3.1/../../../../arm-none-eabi/lib/thumb/v7e-m/nofp\libc.a(lib_a-__call_atexit.o)
 .text.atexit   0x0800b91c        0xc d:/program files/gnu arm embedded toolchain/9 2020-q2-update/bin/../lib/gcc/arm-none-eabi/9.3.1/../../../../arm-none-eabi/lib/thumb/v7e-m/nofp\libc.a(lib_a-atexit.o)
                0x0800b91c                atexit
 .text.__libc_fini_array
                0x0800b928       0x2c d:/program files/gnu arm embedded toolchain/9 2020-q2-update/bin/../lib/gcc/arm-none-eabi/9.3.1/../../../../arm-none-eabi/lib/thumb/v7e-m/nofp\libc.a(lib_a-fini.o)
                0x0800b928                __libc_fini_array
 .text.__retarget_lock_init_recursive
                0x0800b954        0x4 d:/program files/gnu arm embedded toolchain/9 2020-q2-update/bin/../lib/gcc/arm-none-eabi/9.3.1/../../../../arm-none-eabi/lib/thumb/v7e-m/nofp\libc.a(lib_a-lock.o)
                0x0800b954                __retarget_lock_init_recursive
 .text.__retarget_lock_close_recursive
                0x0800b958        0x4 d:/program files/gnu arm embedded toolchain/9 2020-q2-update/bin/../lib/gcc/arm-none-eabi/9.3.1/../../../../arm-none-eabi/lib/thumb/v7e-m/nofp\libc.a(lib_a-lock.o)
                0x0800b958                __retarget_lock_close_recursive
 .text.__retarget_lock_acquire_recursive
                0x0800b95c        0x4 d:/program files/gnu arm embedded toolchain/9 2020-q2-update/bin/../lib/gcc/arm-none-eabi/9.3.1/../../../../arm-none-eabi/lib/thumb/v7e-m/nofp\libc.a(lib_a-lock.o)
                0x0800b95c                __retarget_lock_acquire_recursive
 .text.__retarget_lock_release_recursive
                0x0800b960        0x4 d:/program files/gnu arm embedded toolchain/9 2020-q2-update/bin/../lib/gcc/arm-none-eabi/9.3.1/../../../../arm-none-eabi/lib/thumb/v7e-m/nofp\libc.a(lib_a-lock.o)
                0x0800b960                __retarget_lock_release_recursive
 .text._svfprintf_r
                0x0800b964     0x1acc d:/program files/gnu arm embedded toolchain/9 2020-q2-update/bin/../lib/gcc/arm-none-eabi/9.3.1/../../../../arm-none-eabi/lib/thumb/v7e-m/nofp\libc.a(lib_a-svfprintf.o)
                0x0800b964                _svfprintf_r
 .text.__register_exitproc
                0x0800d430       0x8c d:/program files/gnu arm embedded toolchain/9 2020-q2-update/bin/../lib/gcc/arm-none-eabi/9.3.1/../../../../arm-none-eabi/lib/thumb/v7e-m/nofp\libc.a(lib_a-__atexit.o)
                0x0800d430                __register_exitproc
 .text.quorem   0x0800d4bc      0x11c d:/program files/gnu arm embedded toolchain/9 2020-q2-update/bin/../lib/gcc/arm-none-eabi/9.3.1/../../../../arm-none-eabi/lib/thumb/v7e-m/nofp\libc.a(lib_a-dtoa.o)
 .text._dtoa_r  0x0800d5d8      0xed4 d:/program files/gnu arm embedded toolchain/9 2020-q2-update/bin/../lib/gcc/arm-none-eabi/9.3.1/../../../../arm-none-eabi/lib/thumb/v7e-m/nofp\libc.a(lib_a-dtoa.o)
                0x0800d5d8                _dtoa_r
 .text._malloc_trim_r
                0x0800e4ac       0xa0 d:/program files/gnu arm embedded toolchain/9 2020-q2-update/bin/../lib/gcc/arm-none-eabi/9.3.1/../../../../arm-none-eabi/lib/thumb/v7e-m/nofp\libc.a(lib_a-freer.o)
                0x0800e4ac                _malloc_trim_r
 .text._free_r  0x0800e54c      0x208 d:/program files/gnu arm embedded toolchain/9 2020-q2-update/bin/../lib/gcc/arm-none-eabi/9.3.1/../../../../arm-none-eabi/lib/thumb/v7e-m/nofp\libc.a(lib_a-freer.o)
                0x0800e54c                _free_r
 .text._localeconv_r
                0x0800e754        0x8 d:/program files/gnu arm embedded toolchain/9 2020-q2-update/bin/../lib/gcc/arm-none-eabi/9.3.1/../../../../arm-none-eabi/lib/thumb/v7e-m/nofp\libc.a(lib_a-localeconv.o)
                0x0800e754                _localeconv_r
 .text._malloc_r
                0x0800e75c      0x574 d:/program files/gnu arm embedded toolchain/9 2020-q2-update/bin/../lib/gcc/arm-none-eabi/9.3.1/../../../../arm-none-eabi/lib/thumb/v7e-m/nofp\libc.a(lib_a-mallocr.o)
                0x0800e75c                _malloc_r
 .text.__malloc_lock
                0x0800ecd0        0xc d:/program files/gnu arm embedded toolchain/9 2020-q2-update/bin/../lib/gcc/arm-none-eabi/9.3.1/../../../../arm-none-eabi/lib/thumb/v7e-m/nofp\libc.a(lib_a-mlock.o)
                0x0800ecd0                __malloc_lock
 .text.__malloc_unlock
                0x0800ecdc        0xc d:/program files/gnu arm embedded toolchain/9 2020-q2-update/bin/../lib/gcc/arm-none-eabi/9.3.1/../../../../arm-none-eabi/lib/thumb/v7e-m/nofp\libc.a(lib_a-mlock.o)
                0x0800ecdc                __malloc_unlock
 .text._Balloc  0x0800ece8       0x4c d:/program files/gnu arm embedded toolchain/9 2020-q2-update/bin/../lib/gcc/arm-none-eabi/9.3.1/../../../../arm-none-eabi/lib/thumb/v7e-m/nofp\libc.a(lib_a-mprec.o)
                0x0800ece8                _Balloc
 .text._Bfree   0x0800ed34       0x14 d:/program files/gnu arm embedded toolchain/9 2020-q2-update/bin/../lib/gcc/arm-none-eabi/9.3.1/../../../../arm-none-eabi/lib/thumb/v7e-m/nofp\libc.a(lib_a-mprec.o)
                0x0800ed34                _Bfree
 .text.__multadd
                0x0800ed48       0xa0 d:/program files/gnu arm embedded toolchain/9 2020-q2-update/bin/../lib/gcc/arm-none-eabi/9.3.1/../../../../arm-none-eabi/lib/thumb/v7e-m/nofp\libc.a(lib_a-mprec.o)
                0x0800ed48                __multadd
 .text.__hi0bits
                0x0800ede8       0x40 d:/program files/gnu arm embedded toolchain/9 2020-q2-update/bin/../lib/gcc/arm-none-eabi/9.3.1/../../../../arm-none-eabi/lib/thumb/v7e-m/nofp\libc.a(lib_a-mprec.o)
                0x0800ede8                __hi0bits
 .text.__lo0bits
                0x0800ee28       0x60 d:/program files/gnu arm embedded toolchain/9 2020-q2-update/bin/../lib/gcc/arm-none-eabi/9.3.1/../../../../arm-none-eabi/lib/thumb/v7e-m/nofp\libc.a(lib_a-mprec.o)
                0x0800ee28                __lo0bits
 .text.__i2b    0x0800ee88       0x2c d:/program files/gnu arm embedded toolchain/9 2020-q2-update/bin/../lib/gcc/arm-none-eabi/9.3.1/../../../../arm-none-eabi/lib/thumb/v7e-m/nofp\libc.a(lib_a-mprec.o)
                0x0800ee88                __i2b
 .text.__multiply
                0x0800eeb4      0x160 d:/program files/gnu arm embedded toolchain/9 2020-q2-update/bin/../lib/gcc/arm-none-eabi/9.3.1/../../../../arm-none-eabi/lib/thumb/v7e-m/nofp\libc.a(lib_a-mprec.o)
                0x0800eeb4                __multiply
 .text.__pow5mult
                0x0800f014       0x98 d:/program files/gnu arm embedded toolchain/9 2020-q2-update/bin/../lib/gcc/arm-none-eabi/9.3.1/../../../../arm-none-eabi/lib/thumb/v7e-m/nofp\libc.a(lib_a-mprec.o)
                0x0800f014                __pow5mult
 .text.__lshift
                0x0800f0ac       0xe8 d:/program files/gnu arm embedded toolchain/9 2020-q2-update/bin/../lib/gcc/arm-none-eabi/9.3.1/../../../../arm-none-eabi/lib/thumb/v7e-m/nofp\libc.a(lib_a-mprec.o)
                0x0800f0ac                __lshift
 .text.__mcmp   0x0800f194       0x3c d:/program files/gnu arm embedded toolchain/9 2020-q2-update/bin/../lib/gcc/arm-none-eabi/9.3.1/../../../../arm-none-eabi/lib/thumb/v7e-m/nofp\libc.a(lib_a-mprec.o)
                0x0800f194                __mcmp
 .text.__mdiff  0x0800f1d0      0x148 d:/program files/gnu arm embedded toolchain/9 2020-q2-update/bin/../lib/gcc/arm-none-eabi/9.3.1/../../../../arm-none-eabi/lib/thumb/v7e-m/nofp\libc.a(lib_a-mprec.o)
                0x0800f1d0                __mdiff
 .text.__d2b    0x0800f318       0xc4 d:/program files/gnu arm embedded toolchain/9 2020-q2-update/bin/../lib/gcc/arm-none-eabi/9.3.1/../../../../arm-none-eabi/lib/thumb/v7e-m/nofp\libc.a(lib_a-mprec.o)
                0x0800f318                __d2b
 .text.frexp    0x0800f3dc       0x70 d:/program files/gnu arm embedded toolchain/9 2020-q2-update/bin/../lib/gcc/arm-none-eabi/9.3.1/../../../../arm-none-eabi/lib/thumb/v7e-m/nofp\libc.a(lib_a-s_frexp.o)
                0x0800f3dc                frexp
 .text._sbrk_r  0x0800f44c       0x24 d:/program files/gnu arm embedded toolchain/9 2020-q2-update/bin/../lib/gcc/arm-none-eabi/9.3.1/../../../../arm-none-eabi/lib/thumb/v7e-m/nofp\libc.a(lib_a-sbrkr.o)
                0x0800f44c                _sbrk_r
 .text.strncpy  0x0800f470       0x68 d:/program files/gnu arm embedded toolchain/9 2020-q2-update/bin/../lib/gcc/arm-none-eabi/9.3.1/../../../../arm-none-eabi/lib/thumb/v7e-m/nofp\libc.a(lib_a-strncpy.o)
                0x0800f470                strncpy
 .text.__ssprint_r
                0x0800f4d8       0xf8 d:/program files/gnu arm embedded toolchain/9 2020-q2-update/bin/../lib/gcc/arm-none-eabi/9.3.1/../../../../arm-none-eabi/lib/thumb/v7e-m/nofp\libc.a(lib_a-svfiprintf.o)
                0x0800f4d8                __ssprint_r
 .text.__assert_func
                0x0800f5d0       0x3c d:/program files/gnu arm embedded toolchain/9 2020-q2-update/bin/../lib/gcc/arm-none-eabi/9.3.1/../../../../arm-none-eabi/lib/thumb/v7e-m/nofp\libc.a(lib_a-assert.o)
                0x0800f5d0                __assert_func
 .text._calloc_r
                0x0800f60c       0x60 d:/program files/gnu arm embedded toolchain/9 2020-q2-update/bin/../lib/gcc/arm-none-eabi/9.3.1/../../../../arm-none-eabi/lib/thumb/v7e-m/nofp\libc.a(lib_a-callocr.o)
                0x0800f60c                _calloc_r
 .text.fiprintf
                0x0800f66c       0x28 d:/program files/gnu arm embedded toolchain/9 2020-q2-update/bin/../lib/gcc/arm-none-eabi/9.3.1/../../../../arm-none-eabi/lib/thumb/v7e-m/nofp\libc.a(lib_a-fiprintf.o)
                0x0800f66c                fiprintf
 .text.__locale_mb_cur_max
                0x0800f694        0xc d:/program files/gnu arm embedded toolchain/9 2020-q2-update/bin/../lib/gcc/arm-none-eabi/9.3.1/../../../../arm-none-eabi/lib/thumb/v7e-m/nofp\libc.a(lib_a-locale.o)
                0x0800f694                __locale_mb_cur_max
 .text.__ascii_mbtowc
                0x0800f6a0       0x2c d:/program files/gnu arm embedded toolchain/9 2020-q2-update/bin/../lib/gcc/arm-none-eabi/9.3.1/../../../../arm-none-eabi/lib/thumb/v7e-m/nofp\libc.a(lib_a-mbtowc_r.o)
                0x0800f6a0                __ascii_mbtowc
 .text.memmove  0x0800f6cc       0xd8 d:/program files/gnu arm embedded toolchain/9 2020-q2-update/bin/../lib/gcc/arm-none-eabi/9.3.1/../../../../arm-none-eabi/lib/thumb/v7e-m/nofp\libc.a(lib_a-memmove.o)
                0x0800f6cc                memmove
 .text._realloc_r
                0x0800f7a4      0x3e0 d:/program files/gnu arm embedded toolchain/9 2020-q2-update/bin/../lib/gcc/arm-none-eabi/9.3.1/../../../../arm-none-eabi/lib/thumb/v7e-m/nofp\libc.a(lib_a-reallocr.o)
                0x0800f7a4                _realloc_r
 .text.__sprint_r.part.0
                0x0800fb84       0x78 d:/program files/gnu arm embedded toolchain/9 2020-q2-update/bin/../lib/gcc/arm-none-eabi/9.3.1/../../../../arm-none-eabi/lib/thumb/v7e-m/nofp\libc.a(lib_a-vfiprintf.o)
 .text._vfiprintf_r
                0x0800fbfc      0xd38 d:/program files/gnu arm embedded toolchain/9 2020-q2-update/bin/../lib/gcc/arm-none-eabi/9.3.1/../../../../arm-none-eabi/lib/thumb/v7e-m/nofp\libc.a(lib_a-vfiprintf.o)
                0x0800fbfc                _vfiprintf_r
 .text.__sbprintf
                0x08010934       0x84 d:/program files/gnu arm embedded toolchain/9 2020-q2-update/bin/../lib/gcc/arm-none-eabi/9.3.1/../../../../arm-none-eabi/lib/thumb/v7e-m/nofp\libc.a(lib_a-vfiprintf.o)
 .text.__ascii_wctomb
                0x080109b8       0x1c d:/program files/gnu arm embedded toolchain/9 2020-q2-update/bin/../lib/gcc/arm-none-eabi/9.3.1/../../../../arm-none-eabi/lib/thumb/v7e-m/nofp\libc.a(lib_a-wctomb_r.o)
                0x080109b8                __ascii_wctomb
 .text.__swsetup_r
                0x080109d4       0xd0 d:/program files/gnu arm embedded toolchain/9 2020-q2-update/bin/../lib/gcc/arm-none-eabi/9.3.1/../../../../arm-none-eabi/lib/thumb/v7e-m/nofp\libc.a(lib_a-wsetup.o)
                0x080109d4                __swsetup_r
 .text.abort    0x08010aa4       0x10 d:/program files/gnu arm embedded toolchain/9 2020-q2-update/bin/../lib/gcc/arm-none-eabi/9.3.1/../../../../arm-none-eabi/lib/thumb/v7e-m/nofp\libc.a(lib_a-abort.o)
                0x08010aa4                abort
 .text.__sflush_r
                0x08010ab4      0x130 d:/program files/gnu arm embedded toolchain/9 2020-q2-update/bin/../lib/gcc/arm-none-eabi/9.3.1/../../../../arm-none-eabi/lib/thumb/v7e-m/nofp\libc.a(lib_a-fflush.o)
                0x08010ab4                __sflush_r
 .text._fflush_r
                0x08010be4       0x5c d:/program files/gnu arm embedded toolchain/9 2020-q2-update/bin/../lib/gcc/arm-none-eabi/9.3.1/../../../../arm-none-eabi/lib/thumb/v7e-m/nofp\libc.a(lib_a-fflush.o)
                0x08010be4                _fflush_r
 .text.std      0x08010c40       0x50 d:/program files/gnu arm embedded toolchain/9 2020-q2-update/bin/../lib/gcc/arm-none-eabi/9.3.1/../../../../arm-none-eabi/lib/thumb/v7e-m/nofp\libc.a(lib_a-findfp.o)
 .text._cleanup_r
                0x08010c90        0xc d:/program files/gnu arm embedded toolchain/9 2020-q2-update/bin/../lib/gcc/arm-none-eabi/9.3.1/../../../../arm-none-eabi/lib/thumb/v7e-m/nofp\libc.a(lib_a-findfp.o)
                0x08010c90                _cleanup_r
 .text.__sinit  0x08010c9c       0x54 d:/program files/gnu arm embedded toolchain/9 2020-q2-update/bin/../lib/gcc/arm-none-eabi/9.3.1/../../../../arm-none-eabi/lib/thumb/v7e-m/nofp\libc.a(lib_a-findfp.o)
                0x08010c9c                __sinit
 .text.__sfp_lock_acquire
                0x08010cf0        0xc d:/program files/gnu arm embedded toolchain/9 2020-q2-update/bin/../lib/gcc/arm-none-eabi/9.3.1/../../../../arm-none-eabi/lib/thumb/v7e-m/nofp\libc.a(lib_a-findfp.o)
                0x08010cf0                __sfp_lock_acquire
 .text.__sfp_lock_release
                0x08010cfc        0xc d:/program files/gnu arm embedded toolchain/9 2020-q2-update/bin/../lib/gcc/arm-none-eabi/9.3.1/../../../../arm-none-eabi/lib/thumb/v7e-m/nofp\libc.a(lib_a-findfp.o)
                0x08010cfc                __sfp_lock_release
 .text.__fputwc
                0x08010d08       0xa8 d:/program files/gnu arm embedded toolchain/9 2020-q2-update/bin/../lib/gcc/arm-none-eabi/9.3.1/../../../../arm-none-eabi/lib/thumb/v7e-m/nofp\libc.a(lib_a-fputwc.o)
                0x08010d08                __fputwc
 .text._fputwc_r
                0x08010db0       0x68 d:/program files/gnu arm embedded toolchain/9 2020-q2-update/bin/../lib/gcc/arm-none-eabi/9.3.1/../../../../arm-none-eabi/lib/thumb/v7e-m/nofp\libc.a(lib_a-fputwc.o)
                0x08010db0                _fputwc_r
 .text.__sfvwrite_r
                0x08010e18      0x2e0 d:/program files/gnu arm embedded toolchain/9 2020-q2-update/bin/../lib/gcc/arm-none-eabi/9.3.1/../../../../arm-none-eabi/lib/thumb/v7e-m/nofp\libc.a(lib_a-fvwrite.o)
                0x08010e18                __sfvwrite_r
 .text._fwalk_reent
                0x080110f8       0x48 d:/program files/gnu arm embedded toolchain/9 2020-q2-update/bin/../lib/gcc/arm-none-eabi/9.3.1/../../../../arm-none-eabi/lib/thumb/v7e-m/nofp\libc.a(lib_a-fwalk.o)
                0x080110f8                _fwalk_reent
 .text.__swhatbuf_r
                0x08011140       0x5c d:/program files/gnu arm embedded toolchain/9 2020-q2-update/bin/../lib/gcc/arm-none-eabi/9.3.1/../../../../arm-none-eabi/lib/thumb/v7e-m/nofp\libc.a(lib_a-makebuf.o)
                0x08011140                __swhatbuf_r
 .text.__smakebuf_r
                0x0801119c       0x98 d:/program files/gnu arm embedded toolchain/9 2020-q2-update/bin/../lib/gcc/arm-none-eabi/9.3.1/../../../../arm-none-eabi/lib/thumb/v7e-m/nofp\libc.a(lib_a-makebuf.o)
                0x0801119c                __smakebuf_r
 .text._raise_r
                0x08011234       0x58 d:/program files/gnu arm embedded toolchain/9 2020-q2-update/bin/../lib/gcc/arm-none-eabi/9.3.1/../../../../arm-none-eabi/lib/thumb/v7e-m/nofp\libc.a(lib_a-signal.o)
                0x08011234                _raise_r
 .text.raise    0x0801128c       0x10 d:/program files/gnu arm embedded toolchain/9 2020-q2-update/bin/../lib/gcc/arm-none-eabi/9.3.1/../../../../arm-none-eabi/lib/thumb/v7e-m/nofp\libc.a(lib_a-signal.o)
                0x0801128c                raise
 .text._kill_r  0x0801129c       0x2c d:/program files/gnu arm embedded toolchain/9 2020-q2-update/bin/../lib/gcc/arm-none-eabi/9.3.1/../../../../arm-none-eabi/lib/thumb/v7e-m/nofp\libc.a(lib_a-signalr.o)
                0x0801129c                _kill_r
 .text._getpid_r
                0x080112c8        0x4 d:/program files/gnu arm embedded toolchain/9 2020-q2-update/bin/../lib/gcc/arm-none-eabi/9.3.1/../../../../arm-none-eabi/lib/thumb/v7e-m/nofp\libc.a(lib_a-signalr.o)
                0x080112c8                _getpid_r
 .text.__sread  0x080112cc       0x24 d:/program files/gnu arm embedded toolchain/9 2020-q2-update/bin/../lib/gcc/arm-none-eabi/9.3.1/../../../../arm-none-eabi/lib/thumb/v7e-m/nofp\libc.a(lib_a-stdio.o)
                0x080112cc                __sread
 .text.__swrite
                0x080112f0       0x40 d:/program files/gnu arm embedded toolchain/9 2020-q2-update/bin/../lib/gcc/arm-none-eabi/9.3.1/../../../../arm-none-eabi/lib/thumb/v7e-m/nofp\libc.a(lib_a-stdio.o)
                0x080112f0                __swrite
 .text.__sseek  0x08011330       0x20 d:/program files/gnu arm embedded toolchain/9 2020-q2-update/bin/../lib/gcc/arm-none-eabi/9.3.1/../../../../arm-none-eabi/lib/thumb/v7e-m/nofp\libc.a(lib_a-stdio.o)
                0x08011330                __sseek
 .text.__sclose
                0x08011350        0x8 d:/program files/gnu arm embedded toolchain/9 2020-q2-update/bin/../lib/gcc/arm-none-eabi/9.3.1/../../../../arm-none-eabi/lib/thumb/v7e-m/nofp\libc.a(lib_a-stdio.o)
                0x08011350                __sclose
 .text.__swbuf_r
                0x08011358       0xb0 d:/program files/gnu arm embedded toolchain/9 2020-q2-update/bin/../lib/gcc/arm-none-eabi/9.3.1/../../../../arm-none-eabi/lib/thumb/v7e-m/nofp\libc.a(lib_a-wbuf.o)
                0x08011358                __swbuf_r
 .text._wcrtomb_r
                0x08011408       0x3c d:/program files/gnu arm embedded toolchain/9 2020-q2-update/bin/../lib/gcc/arm-none-eabi/9.3.1/../../../../arm-none-eabi/lib/thumb/v7e-m/nofp\libc.a(lib_a-wcrtomb.o)
                0x08011408                _wcrtomb_r
 .text._write_r
                0x08011444       0x2c d:/program files/gnu arm embedded toolchain/9 2020-q2-update/bin/../lib/gcc/arm-none-eabi/9.3.1/../../../../arm-none-eabi/lib/thumb/v7e-m/nofp\libc.a(lib_a-writer.o)
                0x08011444                _write_r
 .text._close_r
                0x08011470       0x24 d:/program files/gnu arm embedded toolchain/9 2020-q2-update/bin/../lib/gcc/arm-none-eabi/9.3.1/../../../../arm-none-eabi/lib/thumb/v7e-m/nofp\libc.a(lib_a-closer.o)
                0x08011470                _close_r
 .text._fclose_r
                0x08011494       0xcc d:/program files/gnu arm embedded toolchain/9 2020-q2-update/bin/../lib/gcc/arm-none-eabi/9.3.1/../../../../arm-none-eabi/lib/thumb/v7e-m/nofp\libc.a(lib_a-fclose.o)
                0x08011494                _fclose_r
 .text._fstat_r
                0x08011560       0x2c d:/program files/gnu arm embedded toolchain/9 2020-q2-update/bin/../lib/gcc/arm-none-eabi/9.3.1/../../../../arm-none-eabi/lib/thumb/v7e-m/nofp\libc.a(lib_a-fstatr.o)
                0x08011560                _fstat_r
 .text._isatty_r
                0x0801158c       0x24 d:/program files/gnu arm embedded toolchain/9 2020-q2-update/bin/../lib/gcc/arm-none-eabi/9.3.1/../../../../arm-none-eabi/lib/thumb/v7e-m/nofp\libc.a(lib_a-isattyr.o)
                0x0801158c                _isatty_r
 .text._lseek_r
                0x080115b0       0x2c d:/program files/gnu arm embedded toolchain/9 2020-q2-update/bin/../lib/gcc/arm-none-eabi/9.3.1/../../../../arm-none-eabi/lib/thumb/v7e-m/nofp\libc.a(lib_a-lseekr.o)
                0x080115b0                _lseek_r
 .text._read_r  0x080115dc       0x2c d:/program files/gnu arm embedded toolchain/9 2020-q2-update/bin/../lib/gcc/arm-none-eabi/9.3.1/../../../../arm-none-eabi/lib/thumb/v7e-m/nofp\libc.a(lib_a-readr.o)
                0x080115dc                _read_r
 .text._close   0x08011608       0x10 d:/program files/gnu arm embedded toolchain/9 2020-q2-update/bin/../lib/gcc/arm-none-eabi/9.3.1/../../../../arm-none-eabi/lib/thumb/v7e-m/nofp\libnosys.a(close.o)
                0x08011608                _close
 .text._fstat   0x08011618       0x10 d:/program files/gnu arm embedded toolchain/9 2020-q2-update/bin/../lib/gcc/arm-none-eabi/9.3.1/../../../../arm-none-eabi/lib/thumb/v7e-m/nofp\libnosys.a(fstat.o)
                0x08011618                _fstat
 .text._getpid  0x08011628       0x10 d:/program files/gnu arm embedded toolchain/9 2020-q2-update/bin/../lib/gcc/arm-none-eabi/9.3.1/../../../../arm-none-eabi/lib/thumb/v7e-m/nofp\libnosys.a(getpid.o)
                0x08011628                _getpid
 .text._isatty  0x08011638       0x10 d:/program files/gnu arm embedded toolchain/9 2020-q2-update/bin/../lib/gcc/arm-none-eabi/9.3.1/../../../../arm-none-eabi/lib/thumb/v7e-m/nofp\libnosys.a(isatty.o)
                0x08011638                _isatty
 .text._kill    0x08011648       0x10 d:/program files/gnu arm embedded toolchain/9 2020-q2-update/bin/../lib/gcc/arm-none-eabi/9.3.1/../../../../arm-none-eabi/lib/thumb/v7e-m/nofp\libnosys.a(kill.o)
                0x08011648                _kill
 .text._lseek   0x08011658       0x10 d:/program files/gnu arm embedded toolchain/9 2020-q2-update/bin/../lib/gcc/arm-none-eabi/9.3.1/../../../../arm-none-eabi/lib/thumb/v7e-m/nofp\libnosys.a(lseek.o)
                0x08011658                _lseek
 .text._read    0x08011668       0x10 d:/program files/gnu arm embedded toolchain/9 2020-q2-update/bin/../lib/gcc/arm-none-eabi/9.3.1/../../../../arm-none-eabi/lib/thumb/v7e-m/nofp\libnosys.a(read.o)
                0x08011668                _read
 .text._sbrk    0x08011678       0x1c d:/program files/gnu arm embedded toolchain/9 2020-q2-update/bin/../lib/gcc/arm-none-eabi/9.3.1/../../../../arm-none-eabi/lib/thumb/v7e-m/nofp\libnosys.a(sbrk.o)
                0x08011678                _sbrk
 .text._write   0x08011694       0x10 d:/program files/gnu arm embedded toolchain/9 2020-q2-update/bin/../lib/gcc/arm-none-eabi/9.3.1/../../../../arm-none-eabi/lib/thumb/v7e-m/nofp\libnosys.a(write.o)
                0x08011694                _write
 .text._exit    0x080116a4        0x4 d:/program files/gnu arm embedded toolchain/9 2020-q2-update/bin/../lib/gcc/arm-none-eabi/9.3.1/../../../../arm-none-eabi/lib/thumb/v7e-m/nofp\libnosys.a(_exit.o)
                0x080116a4                _exit
 *(.glue_7)
 .glue_7        0x080116a8        0x0 linker stubs
 *(.glue_7t)
 .glue_7t       0x080116a8        0x0 linker stubs
 *(.eh_frame)
 .eh_frame      0x080116a8        0x0 d:/program files/gnu arm embedded toolchain/9 2020-q2-update/bin/../lib/gcc/arm-none-eabi/9.3.1/thumb/v7e-m/nofp/crtbegin.o
 *(.init)
 .init          0x080116a8        0x4 d:/program files/gnu arm embedded toolchain/9 2020-q2-update/bin/../lib/gcc/arm-none-eabi/9.3.1/thumb/v7e-m/nofp/crti.o
                0x080116a8                _init
 .init          0x080116ac        0x8 d:/program files/gnu arm embedded toolchain/9 2020-q2-update/bin/../lib/gcc/arm-none-eabi/9.3.1/thumb/v7e-m/nofp/crtn.o
 *(.fini)
 .fini          0x080116b4        0x4 d:/program files/gnu arm embedded toolchain/9 2020-q2-update/bin/../lib/gcc/arm-none-eabi/9.3.1/thumb/v7e-m/nofp/crti.o
                0x080116b4                _fini
 .fini          0x080116b8        0x8 d:/program files/gnu arm embedded toolchain/9 2020-q2-update/bin/../lib/gcc/arm-none-eabi/9.3.1/thumb/v7e-m/nofp/crtn.o
                0x080116c0                . = ALIGN (0x4)
                0x080116c0                _etext = .

.vfp11_veneer   0x080116c0        0x0
 .vfp11_veneer  0x080116c0        0x0 linker stubs

.v4_bx          0x080116c0        0x0
 .v4_bx         0x080116c0        0x0 linker stubs

.iplt           0x080116c0        0x0
 .iplt          0x080116c0        0x0 d:/program files/gnu arm embedded toolchain/9 2020-q2-update/bin/../lib/gcc/arm-none-eabi/9.3.1/thumb/v7e-m/nofp/crtbegin.o

.rodata         0x080116c0      0xcf0
                0x080116c0                . = ALIGN (0x4)
 *(.rodata)
 .rodata        0x080116c0       0x50 ./objects/printf-stdarg.o
 .rodata        0x08011710        0xc ./objects/tremo_uart.o
 .rodata        0x0801171c        0x5 ./objects/main.o
 .rodata        0x08011721       0x34 ./objects/classa.o
 .rodata        0x08011755       0x22 ./objects/set_tx_duty_cycle_time.o
 .rodata        0x08011777        0xc ./objects/iic.o
 .rodata        0x08011783       0x43 ./objects/ads1115.o
 .rodata        0x080117c6       0x18 ./objects/bh1750.o
 .rodata        0x080117de       0x15 ./objects/sgp30.o
 .rodata        0x080117f3        0xb ./objects/dht11.o
 *fill*         0x080117fe        0x2 
 .rodata        0x08011800      0x10a ./objects/sha256.o
 .rodata        0x0801190a        0xb ./objects/gentriplet.o
 *fill*         0x08011915        0x3 
 .rodata        0x08011918      0x188 ./objects/radio.o
                0x08011918                FskBandwidths
                0x08011a28                Bandwidths
                0x08011a34                Radio
 .rodata        0x08011aa0       0x11 ./objects/sx126x.o
 .rodata        0x08011ab1       0x18 ./objects/rtc-board.o
 .rodata        0x08011ac9       0x10 ./objects/loramac.o
 *fill*         0x08011ad9        0x3 
 .rodata        0x08011adc       0x26 ./objects/regioncn470.o
 *fill*         0x08011b02        0x2 
 .rodata        0x08011b04       0x10 ../../../drivers/crypto/lib/libcrypto.a(aes.o)
 *(.rodata*)
 .rodata.str1.1
                0x08011b14       0x19 ./objects/printf-stdarg.o
 .rodata.str1.1
                0x08011b2d      0x15a ./objects/main.o
 .rodata.str1.1
                0x08011c87        0x3 ./objects/tremo_it.o
 .rodata.str1.1
                0x08011c8a      0x121 ./objects/classa.o
                                0x144 (size before relaxing)
 .rodata.str1.1
                0x08011dab       0x3f ./objects/set_tx_duty_cycle_time.o
                                 0x4b (size before relaxing)
 .rodata.str1.1
                0x08011dea       0x3b ./objects/gwlog.o
 .rodata.str1.1
                0x08011e25       0x19 ./objects/iic.o
                                 0x2e (size before relaxing)
 .rodata.str1.1
                0x08011e3e       0x9b ./objects/ads1115.o
                                 0xb0 (size before relaxing)
 .rodata.str1.1
                0x08011ed9       0x38 ./objects/bh1750.o
                                 0x4d (size before relaxing)
 .rodata.str1.1
                0x08011f11       0x36 ./objects/sgp30.o
                                 0x4b (size before relaxing)
 .rodata.str1.1
                0x08011f47       0x40 ./objects/dht11.o
                                 0x55 (size before relaxing)
 .rodata.str1.1
                0x08011f87       0x1f ./objects/gentriplet.o
                                 0x42 (size before relaxing)
 *fill*         0x08011fa6        0x2 
 .rodata.TWO52  0x08011fa8       0x10 d:/program files/gnu arm embedded toolchain/9 2020-q2-update/bin/../lib/gcc/arm-none-eabi/9.3.1/../../../../arm-none-eabi/lib/thumb/v7e-m/nofp\libm.a(lib_a-s_rint.o)
 .rodata.__ieee754_pow.str1.4
                0x08011fb8        0x0 d:/program files/gnu arm embedded toolchain/9 2020-q2-update/bin/../lib/gcc/arm-none-eabi/9.3.1/../../../../arm-none-eabi/lib/thumb/v7e-m/nofp\libm.a(lib_a-e_pow.o)
                                  0x1 (size before relaxing)
 .rodata._global_impure_ptr
                0x08011fb8        0x4 d:/program files/gnu arm embedded toolchain/9 2020-q2-update/bin/../lib/gcc/arm-none-eabi/9.3.1/../../../../arm-none-eabi/lib/thumb/v7e-m/nofp\libc.a(lib_a-impure.o)
                0x08011fb8                _global_impure_ptr
 .rodata._svfprintf_r.str1.4
                0x08011fbc       0x42 d:/program files/gnu arm embedded toolchain/9 2020-q2-update/bin/../lib/gcc/arm-none-eabi/9.3.1/../../../../arm-none-eabi/lib/thumb/v7e-m/nofp\libc.a(lib_a-svfprintf.o)
 *fill*         0x08011ffe        0x2 
 .rodata.blanks.7335
                0x08012000       0x10 d:/program files/gnu arm embedded toolchain/9 2020-q2-update/bin/../lib/gcc/arm-none-eabi/9.3.1/../../../../arm-none-eabi/lib/thumb/v7e-m/nofp\libc.a(lib_a-svfprintf.o)
 .rodata.zeroes.7336
                0x08012010       0x10 d:/program files/gnu arm embedded toolchain/9 2020-q2-update/bin/../lib/gcc/arm-none-eabi/9.3.1/../../../../arm-none-eabi/lib/thumb/v7e-m/nofp\libc.a(lib_a-svfprintf.o)
 .rodata._dtoa_r.str1.4
                0x08012020       0xa0 d:/program files/gnu arm embedded toolchain/9 2020-q2-update/bin/../lib/gcc/arm-none-eabi/9.3.1/../../../../arm-none-eabi/lib/thumb/v7e-m/nofp\libc.a(lib_a-dtoa.o)
                                 0xa4 (size before relaxing)
 .rodata.__multadd.str1.4
                0x080120c0       0x7d d:/program files/gnu arm embedded toolchain/9 2020-q2-update/bin/../lib/gcc/arm-none-eabi/9.3.1/../../../../arm-none-eabi/lib/thumb/v7e-m/nofp\libc.a(lib_a-mprec.o)
                                 0x91 (size before relaxing)
 *fill*         0x0801213d        0x3 
 .rodata.__mprec_bigtens
                0x08012140       0x28 d:/program files/gnu arm embedded toolchain/9 2020-q2-update/bin/../lib/gcc/arm-none-eabi/9.3.1/../../../../arm-none-eabi/lib/thumb/v7e-m/nofp\libc.a(lib_a-mprec.o)
                0x08012140                __mprec_bigtens
 .rodata.__mprec_tens
                0x08012168       0xc8 d:/program files/gnu arm embedded toolchain/9 2020-q2-update/bin/../lib/gcc/arm-none-eabi/9.3.1/../../../../arm-none-eabi/lib/thumb/v7e-m/nofp\libc.a(lib_a-mprec.o)
                0x08012168                __mprec_tens
 .rodata.p05.6122
                0x08012230        0xc d:/program files/gnu arm embedded toolchain/9 2020-q2-update/bin/../lib/gcc/arm-none-eabi/9.3.1/../../../../arm-none-eabi/lib/thumb/v7e-m/nofp\libc.a(lib_a-mprec.o)
 .rodata.__assert_func.str1.4
                0x0801223c       0x3f d:/program files/gnu arm embedded toolchain/9 2020-q2-update/bin/../lib/gcc/arm-none-eabi/9.3.1/../../../../arm-none-eabi/lib/thumb/v7e-m/nofp\libc.a(lib_a-assert.o)
                                 0x43 (size before relaxing)
 *fill*         0x0801227b        0x1 
 .rodata._setlocale_r.str1.4
                0x0801227c        0xa d:/program files/gnu arm embedded toolchain/9 2020-q2-update/bin/../lib/gcc/arm-none-eabi/9.3.1/../../../../arm-none-eabi/lib/thumb/v7e-m/nofp\libc.a(lib_a-locale.o)
                                  0xd (size before relaxing)
 *fill*         0x08012286        0x2 
 .rodata.str1.4
                0x08012288        0x2 d:/program files/gnu arm embedded toolchain/9 2020-q2-update/bin/../lib/gcc/arm-none-eabi/9.3.1/../../../../arm-none-eabi/lib/thumb/v7e-m/nofp\libc.a(lib_a-locale.o)
 .rodata._vfiprintf_r.str1.4
                0x0801228a       0x2f d:/program files/gnu arm embedded toolchain/9 2020-q2-update/bin/../lib/gcc/arm-none-eabi/9.3.1/../../../../arm-none-eabi/lib/thumb/v7e-m/nofp\libc.a(lib_a-vfiprintf.o)
 *fill*         0x0801228a        0x2 
 .rodata.blanks.7328
                0x0801228c       0x10 d:/program files/gnu arm embedded toolchain/9 2020-q2-update/bin/../lib/gcc/arm-none-eabi/9.3.1/../../../../arm-none-eabi/lib/thumb/v7e-m/nofp\libc.a(lib_a-vfiprintf.o)
 .rodata.zeroes.7329
                0x0801229c       0x10 d:/program files/gnu arm embedded toolchain/9 2020-q2-update/bin/../lib/gcc/arm-none-eabi/9.3.1/../../../../arm-none-eabi/lib/thumb/v7e-m/nofp\libc.a(lib_a-vfiprintf.o)
 .rodata._ctype_
                0x080122ac      0x101 d:/program files/gnu arm embedded toolchain/9 2020-q2-update/bin/../lib/gcc/arm-none-eabi/9.3.1/../../../../arm-none-eabi/lib/thumb/v7e-m/nofp\libc.a(lib_a-ctype_.o)
                0x080122ac                _ctype_
                0x080123b0                . = ALIGN (0x4)
 *fill*         0x080123ad        0x3 

.ARM.extab
 *(.ARM.extab* .gnu.linkonce.armextab.*)

.ARM            0x080123b0        0x8
                0x080123b0                __exidx_start = .
 *(.ARM.exidx*)
 .ARM.exidx     0x080123b0        0x8 d:/program files/gnu arm embedded toolchain/9 2020-q2-update/bin/../lib/gcc/arm-none-eabi/9.3.1/thumb/v7e-m/nofp\libgcc.a(_udivmoddi4.o)
                0x080123b8                __exidx_end = .

.rel.dyn        0x080123b8        0x0
 .rel.iplt      0x080123b8        0x0 d:/program files/gnu arm embedded toolchain/9 2020-q2-update/bin/../lib/gcc/arm-none-eabi/9.3.1/thumb/v7e-m/nofp/crtbegin.o

.preinit_array  0x080123b8        0x0
                0x080123b8                PROVIDE (__preinit_array_start = .)
 *(.preinit_array*)
                0x080123b8                PROVIDE (__preinit_array_end = .)

.init_array     0x080123b8        0x8
                0x080123b8                PROVIDE (__init_array_start = .)
 *(SORT_BY_NAME(.init_array.*))
 .init_array.00000
                0x080123b8        0x4 d:/program files/gnu arm embedded toolchain/9 2020-q2-update/bin/../lib/gcc/arm-none-eabi/9.3.1/../../../../arm-none-eabi/lib/thumb/v7e-m/nofp\libc.a(lib_a-__call_atexit.o)
 *(.init_array*)
 .init_array    0x080123bc        0x4 d:/program files/gnu arm embedded toolchain/9 2020-q2-update/bin/../lib/gcc/arm-none-eabi/9.3.1/thumb/v7e-m/nofp/crtbegin.o
                0x080123c0                PROVIDE (__init_array_end = .)

.fini_array     0x080123c0        0x4
                0x080123c0                PROVIDE (__fini_array_start = .)
 *(SORT_BY_NAME(.fini_array.*))
 *(.fini_array*)
 .fini_array    0x080123c0        0x4 d:/program files/gnu arm embedded toolchain/9 2020-q2-update/bin/../lib/gcc/arm-none-eabi/9.3.1/thumb/v7e-m/nofp/crtbegin.o
                0x080123c4                PROVIDE (__fini_array_end = .)
                0x080123c4                _sidata = LOADADDR (.data)

.data           0x20000000      0xa48 load address 0x080123c4
                0x20000000                . = ALIGN (0x4)
                0x20000000                _sdata = .
 *(.data)
 .data          0x20000000       0x48 ./objects/classa.o
 .data          0x20000048        0x1 ./objects/radio.o
                0x20000048                MaxPayloadLength
 *fill*         0x20000049        0x3 
 .data          0x2000004c        0x4 ./objects/utilities.o
 .data          0x20000050        0x3 ./objects/loramac.o
 .data          0x20000053       0x20 ./objects/loramaccrypto.o
 *fill*         0x20000073        0x5 
 .data          0x20000078       0x20 ./objects/regioncn470.o
 *(.data*)
 .data.__fdlib_version
                0x20000098        0x1 d:/program files/gnu arm embedded toolchain/9 2020-q2-update/bin/../lib/gcc/arm-none-eabi/9.3.1/../../../../arm-none-eabi/lib/thumb/v7e-m/nofp\libm.a(lib_a-s_lib_ver.o)
                0x20000098                __fdlib_version
 *fill*         0x20000099        0x3 
 .data._impure_ptr
                0x2000009c        0x4 d:/program files/gnu arm embedded toolchain/9 2020-q2-update/bin/../lib/gcc/arm-none-eabi/9.3.1/../../../../arm-none-eabi/lib/thumb/v7e-m/nofp\libc.a(lib_a-impure.o)
                0x2000009c                _impure_ptr
 .data.impure_data
                0x200000a0      0x428 d:/program files/gnu arm embedded toolchain/9 2020-q2-update/bin/../lib/gcc/arm-none-eabi/9.3.1/../../../../arm-none-eabi/lib/thumb/v7e-m/nofp\libc.a(lib_a-impure.o)
 .data.__atexit_recursive_mutex
                0x200004c8        0x4 d:/program files/gnu arm embedded toolchain/9 2020-q2-update/bin/../lib/gcc/arm-none-eabi/9.3.1/../../../../arm-none-eabi/lib/thumb/v7e-m/nofp\libc.a(lib_a-__call_atexit.o)
                0x200004c8                __atexit_recursive_mutex
 .data.__malloc_av_
                0x200004cc      0x408 d:/program files/gnu arm embedded toolchain/9 2020-q2-update/bin/../lib/gcc/arm-none-eabi/9.3.1/../../../../arm-none-eabi/lib/thumb/v7e-m/nofp\libc.a(lib_a-mallocr.o)
                0x200004cc                __malloc_av_
 .data.__malloc_sbrk_base
                0x200008d4        0x4 d:/program files/gnu arm embedded toolchain/9 2020-q2-update/bin/../lib/gcc/arm-none-eabi/9.3.1/../../../../arm-none-eabi/lib/thumb/v7e-m/nofp\libc.a(lib_a-mallocr.o)
                0x200008d4                __malloc_sbrk_base
 .data.__malloc_trim_threshold
                0x200008d8        0x4 d:/program files/gnu arm embedded toolchain/9 2020-q2-update/bin/../lib/gcc/arm-none-eabi/9.3.1/../../../../arm-none-eabi/lib/thumb/v7e-m/nofp\libc.a(lib_a-mallocr.o)
                0x200008d8                __malloc_trim_threshold
 .data.__global_locale
                0x200008dc      0x16c d:/program files/gnu arm embedded toolchain/9 2020-q2-update/bin/../lib/gcc/arm-none-eabi/9.3.1/../../../../arm-none-eabi/lib/thumb/v7e-m/nofp\libc.a(lib_a-locale.o)
                0x200008dc                __global_locale
                0x20000a48                . = ALIGN (0x4)
                0x20000a48                _edata = .

.igot.plt       0x20000a48        0x0 load address 0x08012e0c
 .igot.plt      0x20000a48        0x0 d:/program files/gnu arm embedded toolchain/9 2020-q2-update/bin/../lib/gcc/arm-none-eabi/9.3.1/thumb/v7e-m/nofp/crtbegin.o
                0x20000a48                . = ALIGN (0x4)

.bss            0x20000a48      0xd20 load address 0x08012e0c
                0x20000a48                _sbss = .
                0x20000a48                __bss_start__ = _sbss
 *(.bss)
 .bss           0x20000a48       0x1c d:/program files/gnu arm embedded toolchain/9 2020-q2-update/bin/../lib/gcc/arm-none-eabi/9.3.1/thumb/v7e-m/nofp/crtbegin.o
 .bss           0x20000a64        0x1 ./objects/tremo_delay.o
 .bss           0x20000a65       0x1c ./objects/tremo_it.o
                0x20000a65                cur
                0x20000a66                UART_DATA
                0x20000a7f                UART_RX_DONE
                0x20000a80                UART_DATA_LENGTH
 *fill*         0x20000a81        0x3 
 .bss           0x20000a84       0x36 ./objects/classa.o
 *fill*         0x20000aba        0x6 
 .bss           0x20000ac0       0x11 ./objects/timer.o
                0x20000ad0                HasLoopedThroughMain
 *fill*         0x20000ad1        0x3 
 .bss           0x20000ad4       0x16 ./objects/radio.o
                0x20000ad8                IrqFired
                0x20000adc                TxTimeout
                0x20000ae0                RxContinuous
                0x20000ae4                RxTimeout
 *fill*         0x20000aea        0x2 
 .bss           0x20000aec        0x8 ./objects/sx126x.o
                0x20000af0                FrequencyError
 .bss           0x20000af4        0x9 ./objects/rtc-board.o
                0x20000af8                McuWakeUpTime
                0x20000afc                NonScheduledWakeUp
 .bss           0x20000afd        0x1 ./objects/sx1262-board.o
                0x20000afd                gPaOptSetting
 *fill*         0x20000afe        0x2 
 .bss           0x20000b00      0x4d9 ./objects/loramac.o
                0x20000bd0                LoRaMacState
                0x20000f78                TxTimeOnAir
 *fill*         0x20000fd9        0x3 
 .bss           0x20000fdc       0x19 ./objects/loramacconfirmqueue.o
 *fill*         0x20000ff5        0x3 
 .bss           0x20000ff8       0x44 ./objects/loramaccrypto.o
 .bss           0x2000103c      0x498 ./objects/regioncn470.o
 *(.bss*)
 .bss.__malloc_current_mallinfo
                0x200014d4       0x28 d:/program files/gnu arm embedded toolchain/9 2020-q2-update/bin/../lib/gcc/arm-none-eabi/9.3.1/../../../../arm-none-eabi/lib/thumb/v7e-m/nofp\libc.a(lib_a-mallocr.o)
                0x200014d4                __malloc_current_mallinfo
 .bss.__malloc_max_sbrked_mem
                0x200014fc        0x4 d:/program files/gnu arm embedded toolchain/9 2020-q2-update/bin/../lib/gcc/arm-none-eabi/9.3.1/../../../../arm-none-eabi/lib/thumb/v7e-m/nofp\libc.a(lib_a-mallocr.o)
                0x200014fc                __malloc_max_sbrked_mem
 .bss.__malloc_max_total_mem
                0x20001500        0x4 d:/program files/gnu arm embedded toolchain/9 2020-q2-update/bin/../lib/gcc/arm-none-eabi/9.3.1/../../../../arm-none-eabi/lib/thumb/v7e-m/nofp\libc.a(lib_a-mallocr.o)
                0x20001500                __malloc_max_total_mem
 .bss.__malloc_top_pad
                0x20001504        0x4 d:/program files/gnu arm embedded toolchain/9 2020-q2-update/bin/../lib/gcc/arm-none-eabi/9.3.1/../../../../arm-none-eabi/lib/thumb/v7e-m/nofp\libc.a(lib_a-mallocr.o)
                0x20001504                __malloc_top_pad
 .bss.heap_end.4144
                0x20001508        0x4 d:/program files/gnu arm embedded toolchain/9 2020-q2-update/bin/../lib/gcc/arm-none-eabi/9.3.1/../../../../arm-none-eabi/lib/thumb/v7e-m/nofp\libnosys.a(sbrk.o)
 *(COMMON)
 COMMON         0x2000150c      0x190 ./objects/radio.o
                0x2000150c                irqRegs
                0x20001510                SX126x
                0x2000154c                TxTimeoutTimer
                0x20001560                RadioRxPayload
                0x20001660                CadTimeoutTimer
                0x20001674                RadioPktStatus
                0x20001688                RxTimeoutTimer
 *fill*         0x2000169c        0x4 
 COMMON         0x200016a0       0x18 ./objects/rtc-board.o
                0x200016a0                RtcCalendarContext
                0x200016b0                RtcTimerContext
 COMMON         0x200016b8       0x7c ./objects/loramac.o
                0x200016b8                LoRaMacFlags
                0x200016bc                LoRaMacParamsDefaults
                0x200016f8                LoRaMacParams
 COMMON         0x20001734        0xc ./objects/loramacconfirmqueue.o
                0x20001734                CommonStatus
                0x20001738                BufferStart
                0x2000173c                BufferEnd
 COMMON         0x20001740       0x21 d:/program files/gnu arm embedded toolchain/9 2020-q2-update/bin/../lib/gcc/arm-none-eabi/9.3.1/../../../../arm-none-eabi/lib/thumb/v7e-m/nofp\libc.a(lib_a-lock.o)
                0x20001740                __lock___atexit_recursive_mutex
                0x20001744                __lock___arc4random_mutex
                0x20001748                __lock___env_recursive_mutex
                0x2000174c                __lock___sinit_recursive_mutex
                0x20001750                __lock___malloc_recursive_mutex
                0x20001754                __lock___at_quick_exit_mutex
                0x20001758                __lock___dd_hash_mutex
                0x2000175c                __lock___tz_mutex
                0x20001760                __lock___sfp_recursive_mutex
 *fill*         0x20001761        0x3 
 COMMON         0x20001764        0x4 d:/program files/gnu arm embedded toolchain/9 2020-q2-update/bin/../lib/gcc/arm-none-eabi/9.3.1/../../../../arm-none-eabi/lib/thumb/v7e-m/nofp\libc.a(lib_a-reent.o)
                0x20001764                errno
                0x20001768                . = ALIGN (0x4)
                0x20001768                _ebss = .
                0x20001768                __bss_end__ = _ebss

.heap           0x20001768        0x0 load address 0x08012e0c
                0x20001768                . = ALIGN (0x4)
                0x20001768                _heap_bottom = .
                0x20001768                end = _heap_bottom
                0x20001768                _end = end
                0x20001768                __end = end
                0x20001768                . = (. + _HEAP_SIZE)
                0x20001768                _heap_top = .

.stack          0x20001768     0x1000 load address 0x08012e0c
                0x20001768                . = ALIGN (0x4)
                0x20001768                _stack_bottom = .
                0x20002768                . = (. + _STACK_SIZE)
 *fill*         0x20001768     0x1000 
                0x20002768                _stack_top = .

/DISCARD/
 libc.a(*)
 libm.a(*)
 libgcc.a(*)

.ARM.attributes
                0x00000000       0x2e
 *(.ARM.attributes)
 .ARM.attributes
                0x00000000       0x1e d:/program files/gnu arm embedded toolchain/9 2020-q2-update/bin/../lib/gcc/arm-none-eabi/9.3.1/thumb/v7e-m/nofp/crti.o
 .ARM.attributes
                0x0000001e       0x2e d:/program files/gnu arm embedded toolchain/9 2020-q2-update/bin/../lib/gcc/arm-none-eabi/9.3.1/thumb/v7e-m/nofp/crtbegin.o
 .ARM.attributes
                0x0000004c       0x32 ./objects/system_cm4.o
 .ARM.attributes
                0x0000007e       0x25 ./objects/startup_cm4.o
 .ARM.attributes
                0x000000a3       0x32 ./objects/printf-stdarg.o
 .ARM.attributes
                0x000000d5       0x32 ./objects/tremo_delay.o
 .ARM.attributes
                0x00000107       0x32 ./objects/tremo_gpio.o
 .ARM.attributes
                0x00000139       0x32 ./objects/tremo_pwr.o
 .ARM.attributes
                0x0000016b       0x32 ./objects/tremo_rcc.o
 .ARM.attributes
                0x0000019d       0x32 ./objects/tremo_rtc.o
 .ARM.attributes
                0x000001cf       0x32 ./objects/tremo_system.o
 .ARM.attributes
                0x00000201       0x32 ./objects/tremo_uart.o
 .ARM.attributes
                0x00000233       0x32 ./objects/main.o
 .ARM.attributes
                0x00000265       0x32 ./objects/tremo_it.o
 .ARM.attributes
                0x00000297       0x32 ./objects/classa.o
 .ARM.attributes
                0x000002c9       0x32 ./objects/strtohex.o
 .ARM.attributes
                0x000002fb       0x32 ./objects/set_tx_duty_cycle_time.o
 .ARM.attributes
                0x0000032d       0x32 ./objects/gwlog.o
 .ARM.attributes
                0x0000035f       0x32 ./objects/iic.o
 .ARM.attributes
                0x00000391       0x32 ./objects/ads1115.o
 .ARM.attributes
                0x000003c3       0x32 ./objects/bh1750.o
 .ARM.attributes
                0x000003f5       0x32 ./objects/sgp30.o
 .ARM.attributes
                0x00000427       0x32 ./objects/dht11.o
 .ARM.attributes
                0x00000459       0x32 ./objects/sha256.o
 .ARM.attributes
                0x0000048b       0x32 ./objects/gentriplet.o
 .ARM.attributes
                0x000004bd       0x32 ./objects/delay.o
 .ARM.attributes
                0x000004ef       0x32 ./objects/timer.o
 .ARM.attributes
                0x00000521       0x32 ./objects/cmac.o
 .ARM.attributes
                0x00000553       0x32 ./objects/radio.o
 .ARM.attributes
                0x00000585       0x32 ./objects/sx126x.o
 .ARM.attributes
                0x000005b7       0x32 ./objects/rtc-board.o
 .ARM.attributes
                0x000005e9       0x32 ./objects/sx1262-board.o
 .ARM.attributes
                0x0000061b       0x32 ./objects/utilities.o
 .ARM.attributes
                0x0000064d       0x32 ./objects/loramac.o
 .ARM.attributes
                0x0000067f       0x32 ./objects/loramacclassb.o
 .ARM.attributes
                0x000006b1       0x32 ./objects/loramacconfirmqueue.o
 .ARM.attributes
                0x000006e3       0x32 ./objects/loramaccrypto.o
 .ARM.attributes
                0x00000715       0x32 ./objects/region.o
 .ARM.attributes
                0x00000747       0x32 ./objects/regioncommon.o
 .ARM.attributes
                0x00000779       0x32 ./objects/regioncn470.o
 .ARM.attributes
                0x000007ab       0x2e ../../../drivers/crypto/lib/libcrypto.a(aes.o)
 .ARM.attributes
                0x000007d9       0x2e d:/program files/gnu arm embedded toolchain/9 2020-q2-update/bin/../lib/gcc/arm-none-eabi/9.3.1/../../../../arm-none-eabi/lib/thumb/v7e-m/nofp\libm.a(lib_a-s_ceil.o)
 .ARM.attributes
                0x00000807       0x2e d:/program files/gnu arm embedded toolchain/9 2020-q2-update/bin/../lib/gcc/arm-none-eabi/9.3.1/../../../../arm-none-eabi/lib/thumb/v7e-m/nofp\libm.a(lib_a-s_floor.o)
 .ARM.attributes
                0x00000835       0x2e d:/program files/gnu arm embedded toolchain/9 2020-q2-update/bin/../lib/gcc/arm-none-eabi/9.3.1/../../../../arm-none-eabi/lib/thumb/v7e-m/nofp\libm.a(lib_a-s_rint.o)
 .ARM.attributes
                0x00000863       0x2e d:/program files/gnu arm embedded toolchain/9 2020-q2-update/bin/../lib/gcc/arm-none-eabi/9.3.1/../../../../arm-none-eabi/lib/thumb/v7e-m/nofp\libm.a(lib_a-s_round.o)
 .ARM.attributes
                0x00000891       0x2e d:/program files/gnu arm embedded toolchain/9 2020-q2-update/bin/../lib/gcc/arm-none-eabi/9.3.1/../../../../arm-none-eabi/lib/thumb/v7e-m/nofp\libm.a(lib_a-w_pow.o)
 .ARM.attributes
                0x000008bf       0x2e d:/program files/gnu arm embedded toolchain/9 2020-q2-update/bin/../lib/gcc/arm-none-eabi/9.3.1/../../../../arm-none-eabi/lib/thumb/v7e-m/nofp\libm.a(lib_a-e_pow.o)
 .ARM.attributes
                0x000008ed       0x2e d:/program files/gnu arm embedded toolchain/9 2020-q2-update/bin/../lib/gcc/arm-none-eabi/9.3.1/../../../../arm-none-eabi/lib/thumb/v7e-m/nofp\libm.a(lib_a-e_sqrt.o)
 .ARM.attributes
                0x0000091b       0x2e d:/program files/gnu arm embedded toolchain/9 2020-q2-update/bin/../lib/gcc/arm-none-eabi/9.3.1/../../../../arm-none-eabi/lib/thumb/v7e-m/nofp\libm.a(lib_a-s_fabs.o)
 .ARM.attributes
                0x00000949       0x2e d:/program files/gnu arm embedded toolchain/9 2020-q2-update/bin/../lib/gcc/arm-none-eabi/9.3.1/../../../../arm-none-eabi/lib/thumb/v7e-m/nofp\libm.a(lib_a-s_finite.o)
 .ARM.attributes
                0x00000977       0x2e d:/program files/gnu arm embedded toolchain/9 2020-q2-update/bin/../lib/gcc/arm-none-eabi/9.3.1/../../../../arm-none-eabi/lib/thumb/v7e-m/nofp\libm.a(lib_a-s_lib_ver.o)
 .ARM.attributes
                0x000009a5       0x2e d:/program files/gnu arm embedded toolchain/9 2020-q2-update/bin/../lib/gcc/arm-none-eabi/9.3.1/../../../../arm-none-eabi/lib/thumb/v7e-m/nofp\libm.a(lib_a-s_nan.o)
 .ARM.attributes
                0x000009d3       0x2e d:/program files/gnu arm embedded toolchain/9 2020-q2-update/bin/../lib/gcc/arm-none-eabi/9.3.1/../../../../arm-none-eabi/lib/thumb/v7e-m/nofp\libm.a(lib_a-s_scalbn.o)
 .ARM.attributes
                0x00000a01       0x1e d:/program files/gnu arm embedded toolchain/9 2020-q2-update/bin/../lib/gcc/arm-none-eabi/9.3.1/thumb/v7e-m/nofp\libgcc.a(_arm_addsubdf3.o)
 .ARM.attributes
                0x00000a1f       0x1e d:/program files/gnu arm embedded toolchain/9 2020-q2-update/bin/../lib/gcc/arm-none-eabi/9.3.1/thumb/v7e-m/nofp\libgcc.a(_arm_muldivdf3.o)
 .ARM.attributes
                0x00000a3d       0x1e d:/program files/gnu arm embedded toolchain/9 2020-q2-update/bin/../lib/gcc/arm-none-eabi/9.3.1/thumb/v7e-m/nofp\libgcc.a(_arm_cmpdf2.o)
 .ARM.attributes
                0x00000a5b       0x1e d:/program files/gnu arm embedded toolchain/9 2020-q2-update/bin/../lib/gcc/arm-none-eabi/9.3.1/thumb/v7e-m/nofp\libgcc.a(_arm_unorddf2.o)
 .ARM.attributes
                0x00000a79       0x1e d:/program files/gnu arm embedded toolchain/9 2020-q2-update/bin/../lib/gcc/arm-none-eabi/9.3.1/thumb/v7e-m/nofp\libgcc.a(_arm_fixdfsi.o)
 .ARM.attributes
                0x00000a97       0x1e d:/program files/gnu arm embedded toolchain/9 2020-q2-update/bin/../lib/gcc/arm-none-eabi/9.3.1/thumb/v7e-m/nofp\libgcc.a(_arm_fixunsdfsi.o)
 .ARM.attributes
                0x00000ab5       0x1e d:/program files/gnu arm embedded toolchain/9 2020-q2-update/bin/../lib/gcc/arm-none-eabi/9.3.1/thumb/v7e-m/nofp\libgcc.a(_aeabi_uldivmod.o)
 .ARM.attributes
                0x00000ad3       0x2e d:/program files/gnu arm embedded toolchain/9 2020-q2-update/bin/../lib/gcc/arm-none-eabi/9.3.1/thumb/v7e-m/nofp\libgcc.a(_fixunsdfdi.o)
 .ARM.attributes
                0x00000b01       0x2e d:/program files/gnu arm embedded toolchain/9 2020-q2-update/bin/../lib/gcc/arm-none-eabi/9.3.1/thumb/v7e-m/nofp\libgcc.a(_udivmoddi4.o)
 .ARM.attributes
                0x00000b2f       0x1e d:/program files/gnu arm embedded toolchain/9 2020-q2-update/bin/../lib/gcc/arm-none-eabi/9.3.1/thumb/v7e-m/nofp\libgcc.a(_dvmd_tls.o)
 .ARM.attributes
                0x00000b4d       0x2e d:/program files/gnu arm embedded toolchain/9 2020-q2-update/bin/../lib/gcc/arm-none-eabi/9.3.1/../../../../arm-none-eabi/lib/thumb/v7e-m/nofp\libc.a(lib_a-errno.o)
 .ARM.attributes
                0x00000b7b       0x2e d:/program files/gnu arm embedded toolchain/9 2020-q2-update/bin/../lib/gcc/arm-none-eabi/9.3.1/../../../../arm-none-eabi/lib/thumb/v7e-m/nofp\libc.a(lib_a-impure.o)
 .ARM.attributes
                0x00000ba9       0x2e d:/program files/gnu arm embedded toolchain/9 2020-q2-update/bin/../lib/gcc/arm-none-eabi/9.3.1/../../../../arm-none-eabi/lib/thumb/v7e-m/nofp\libc.a(lib_a-init.o)
 .ARM.attributes
                0x00000bd7       0x1c d:/program files/gnu arm embedded toolchain/9 2020-q2-update/bin/../lib/gcc/arm-none-eabi/9.3.1/../../../../arm-none-eabi/lib/thumb/v7e-m/nofp\libc.a(lib_a-memcpy.o)
 .ARM.attributes
                0x00000bf3       0x2e d:/program files/gnu arm embedded toolchain/9 2020-q2-update/bin/../lib/gcc/arm-none-eabi/9.3.1/../../../../arm-none-eabi/lib/thumb/v7e-m/nofp\libc.a(lib_a-memset.o)
 .ARM.attributes
                0x00000c21       0x1c d:/program files/gnu arm embedded toolchain/9 2020-q2-update/bin/../lib/gcc/arm-none-eabi/9.3.1/../../../../arm-none-eabi/lib/thumb/v7e-m/nofp\libc.a(lib_a-strlen.o)
 .ARM.attributes
                0x00000c3d       0x2e d:/program files/gnu arm embedded toolchain/9 2020-q2-update/bin/../lib/gcc/arm-none-eabi/9.3.1/../../../../arm-none-eabi/lib/thumb/v7e-m/nofp\libc.a(lib_a-vsnprintf.o)
 .ARM.attributes
                0x00000c6b       0x2e d:/program files/gnu arm embedded toolchain/9 2020-q2-update/bin/../lib/gcc/arm-none-eabi/9.3.1/../../../../arm-none-eabi/lib/thumb/v7e-m/nofp\libc.a(lib_a-__call_atexit.o)
 .ARM.attributes
                0x00000c99       0x2e d:/program files/gnu arm embedded toolchain/9 2020-q2-update/bin/../lib/gcc/arm-none-eabi/9.3.1/../../../../arm-none-eabi/lib/thumb/v7e-m/nofp\libc.a(lib_a-atexit.o)
 .ARM.attributes
                0x00000cc7       0x2e d:/program files/gnu arm embedded toolchain/9 2020-q2-update/bin/../lib/gcc/arm-none-eabi/9.3.1/../../../../arm-none-eabi/lib/thumb/v7e-m/nofp\libc.a(lib_a-fini.o)
 .ARM.attributes
                0x00000cf5       0x2e d:/program files/gnu arm embedded toolchain/9 2020-q2-update/bin/../lib/gcc/arm-none-eabi/9.3.1/../../../../arm-none-eabi/lib/thumb/v7e-m/nofp\libc.a(lib_a-lock.o)
 .ARM.attributes
                0x00000d23       0x2e d:/program files/gnu arm embedded toolchain/9 2020-q2-update/bin/../lib/gcc/arm-none-eabi/9.3.1/../../../../arm-none-eabi/lib/thumb/v7e-m/nofp\libc.a(lib_a-svfprintf.o)
 .ARM.attributes
                0x00000d51       0x2e d:/program files/gnu arm embedded toolchain/9 2020-q2-update/bin/../lib/gcc/arm-none-eabi/9.3.1/../../../../arm-none-eabi/lib/thumb/v7e-m/nofp\libc.a(lib_a-__atexit.o)
 .ARM.attributes
                0x00000d7f       0x2e d:/program files/gnu arm embedded toolchain/9 2020-q2-update/bin/../lib/gcc/arm-none-eabi/9.3.1/../../../../arm-none-eabi/lib/thumb/v7e-m/nofp\libc.a(lib_a-dtoa.o)
 .ARM.attributes
                0x00000dad       0x2e d:/program files/gnu arm embedded toolchain/9 2020-q2-update/bin/../lib/gcc/arm-none-eabi/9.3.1/../../../../arm-none-eabi/lib/thumb/v7e-m/nofp\libc.a(lib_a-freer.o)
 .ARM.attributes
                0x00000ddb       0x2e d:/program files/gnu arm embedded toolchain/9 2020-q2-update/bin/../lib/gcc/arm-none-eabi/9.3.1/../../../../arm-none-eabi/lib/thumb/v7e-m/nofp\libc.a(lib_a-localeconv.o)
 .ARM.attributes
                0x00000e09       0x2e d:/program files/gnu arm embedded toolchain/9 2020-q2-update/bin/../lib/gcc/arm-none-eabi/9.3.1/../../../../arm-none-eabi/lib/thumb/v7e-m/nofp\libc.a(lib_a-mallocr.o)
 .ARM.attributes
                0x00000e37       0x1c d:/program files/gnu arm embedded toolchain/9 2020-q2-update/bin/../lib/gcc/arm-none-eabi/9.3.1/../../../../arm-none-eabi/lib/thumb/v7e-m/nofp\libc.a(lib_a-memchr.o)
 .ARM.attributes
                0x00000e53       0x2e d:/program files/gnu arm embedded toolchain/9 2020-q2-update/bin/../lib/gcc/arm-none-eabi/9.3.1/../../../../arm-none-eabi/lib/thumb/v7e-m/nofp\libc.a(lib_a-mlock.o)
 .ARM.attributes
                0x00000e81       0x2e d:/program files/gnu arm embedded toolchain/9 2020-q2-update/bin/../lib/gcc/arm-none-eabi/9.3.1/../../../../arm-none-eabi/lib/thumb/v7e-m/nofp\libc.a(lib_a-mprec.o)
 .ARM.attributes
                0x00000eaf       0x2e d:/program files/gnu arm embedded toolchain/9 2020-q2-update/bin/../lib/gcc/arm-none-eabi/9.3.1/../../../../arm-none-eabi/lib/thumb/v7e-m/nofp\libc.a(lib_a-s_frexp.o)
 .ARM.attributes
                0x00000edd       0x2e d:/program files/gnu arm embedded toolchain/9 2020-q2-update/bin/../lib/gcc/arm-none-eabi/9.3.1/../../../../arm-none-eabi/lib/thumb/v7e-m/nofp\libc.a(lib_a-sbrkr.o)
 .ARM.attributes
                0x00000f0b       0x2e d:/program files/gnu arm embedded toolchain/9 2020-q2-update/bin/../lib/gcc/arm-none-eabi/9.3.1/../../../../arm-none-eabi/lib/thumb/v7e-m/nofp\libc.a(lib_a-strncpy.o)
 .ARM.attributes
                0x00000f39       0x2e d:/program files/gnu arm embedded toolchain/9 2020-q2-update/bin/../lib/gcc/arm-none-eabi/9.3.1/../../../../arm-none-eabi/lib/thumb/v7e-m/nofp\libc.a(lib_a-svfiprintf.o)
 .ARM.attributes
                0x00000f67       0x2e d:/program files/gnu arm embedded toolchain/9 2020-q2-update/bin/../lib/gcc/arm-none-eabi/9.3.1/../../../../arm-none-eabi/lib/thumb/v7e-m/nofp\libc.a(lib_a-assert.o)
 .ARM.attributes
                0x00000f95       0x2e d:/program files/gnu arm embedded toolchain/9 2020-q2-update/bin/../lib/gcc/arm-none-eabi/9.3.1/../../../../arm-none-eabi/lib/thumb/v7e-m/nofp\libc.a(lib_a-callocr.o)
 .ARM.attributes
                0x00000fc3       0x2e d:/program files/gnu arm embedded toolchain/9 2020-q2-update/bin/../lib/gcc/arm-none-eabi/9.3.1/../../../../arm-none-eabi/lib/thumb/v7e-m/nofp\libc.a(lib_a-fiprintf.o)
 .ARM.attributes
                0x00000ff1       0x2e d:/program files/gnu arm embedded toolchain/9 2020-q2-update/bin/../lib/gcc/arm-none-eabi/9.3.1/../../../../arm-none-eabi/lib/thumb/v7e-m/nofp\libc.a(lib_a-locale.o)
 .ARM.attributes
                0x0000101f       0x2e d:/program files/gnu arm embedded toolchain/9 2020-q2-update/bin/../lib/gcc/arm-none-eabi/9.3.1/../../../../arm-none-eabi/lib/thumb/v7e-m/nofp\libc.a(lib_a-mbtowc_r.o)
 .ARM.attributes
                0x0000104d       0x2e d:/program files/gnu arm embedded toolchain/9 2020-q2-update/bin/../lib/gcc/arm-none-eabi/9.3.1/../../../../arm-none-eabi/lib/thumb/v7e-m/nofp\libc.a(lib_a-memmove.o)
 .ARM.attributes
                0x0000107b       0x2e d:/program files/gnu arm embedded toolchain/9 2020-q2-update/bin/../lib/gcc/arm-none-eabi/9.3.1/../../../../arm-none-eabi/lib/thumb/v7e-m/nofp\libc.a(lib_a-reallocr.o)
 .ARM.attributes
                0x000010a9       0x2e d:/program files/gnu arm embedded toolchain/9 2020-q2-update/bin/../lib/gcc/arm-none-eabi/9.3.1/../../../../arm-none-eabi/lib/thumb/v7e-m/nofp\libc.a(lib_a-reent.o)
 .ARM.attributes
                0x000010d7       0x2e d:/program files/gnu arm embedded toolchain/9 2020-q2-update/bin/../lib/gcc/arm-none-eabi/9.3.1/../../../../arm-none-eabi/lib/thumb/v7e-m/nofp\libc.a(lib_a-vfiprintf.o)
 .ARM.attributes
                0x00001105       0x2e d:/program files/gnu arm embedded toolchain/9 2020-q2-update/bin/../lib/gcc/arm-none-eabi/9.3.1/../../../../arm-none-eabi/lib/thumb/v7e-m/nofp\libc.a(lib_a-wctomb_r.o)
 .ARM.attributes
                0x00001133       0x2e d:/program files/gnu arm embedded toolchain/9 2020-q2-update/bin/../lib/gcc/arm-none-eabi/9.3.1/../../../../arm-none-eabi/lib/thumb/v7e-m/nofp\libc.a(lib_a-wsetup.o)
 .ARM.attributes
                0x00001161       0x2e d:/program files/gnu arm embedded toolchain/9 2020-q2-update/bin/../lib/gcc/arm-none-eabi/9.3.1/../../../../arm-none-eabi/lib/thumb/v7e-m/nofp\libc.a(lib_a-abort.o)
 .ARM.attributes
                0x0000118f       0x2e d:/program files/gnu arm embedded toolchain/9 2020-q2-update/bin/../lib/gcc/arm-none-eabi/9.3.1/../../../../arm-none-eabi/lib/thumb/v7e-m/nofp\libc.a(lib_a-ctype_.o)
 .ARM.attributes
                0x000011bd       0x2e d:/program files/gnu arm embedded toolchain/9 2020-q2-update/bin/../lib/gcc/arm-none-eabi/9.3.1/../../../../arm-none-eabi/lib/thumb/v7e-m/nofp\libc.a(lib_a-fflush.o)
 .ARM.attributes
                0x000011eb       0x2e d:/program files/gnu arm embedded toolchain/9 2020-q2-update/bin/../lib/gcc/arm-none-eabi/9.3.1/../../../../arm-none-eabi/lib/thumb/v7e-m/nofp\libc.a(lib_a-findfp.o)
 .ARM.attributes
                0x00001219       0x2e d:/program files/gnu arm embedded toolchain/9 2020-q2-update/bin/../lib/gcc/arm-none-eabi/9.3.1/../../../../arm-none-eabi/lib/thumb/v7e-m/nofp\libc.a(lib_a-fputwc.o)
 .ARM.attributes
                0x00001247       0x2e d:/program files/gnu arm embedded toolchain/9 2020-q2-update/bin/../lib/gcc/arm-none-eabi/9.3.1/../../../../arm-none-eabi/lib/thumb/v7e-m/nofp\libc.a(lib_a-fvwrite.o)
 .ARM.attributes
                0x00001275       0x2e d:/program files/gnu arm embedded toolchain/9 2020-q2-update/bin/../lib/gcc/arm-none-eabi/9.3.1/../../../../arm-none-eabi/lib/thumb/v7e-m/nofp\libc.a(lib_a-fwalk.o)
 .ARM.attributes
                0x000012a3       0x2e d:/program files/gnu arm embedded toolchain/9 2020-q2-update/bin/../lib/gcc/arm-none-eabi/9.3.1/../../../../arm-none-eabi/lib/thumb/v7e-m/nofp\libc.a(lib_a-makebuf.o)
 .ARM.attributes
                0x000012d1       0x2e d:/program files/gnu arm embedded toolchain/9 2020-q2-update/bin/../lib/gcc/arm-none-eabi/9.3.1/../../../../arm-none-eabi/lib/thumb/v7e-m/nofp\libc.a(lib_a-signal.o)
 .ARM.attributes
                0x000012ff       0x2e d:/program files/gnu arm embedded toolchain/9 2020-q2-update/bin/../lib/gcc/arm-none-eabi/9.3.1/../../../../arm-none-eabi/lib/thumb/v7e-m/nofp\libc.a(lib_a-signalr.o)
 .ARM.attributes
                0x0000132d       0x2e d:/program files/gnu arm embedded toolchain/9 2020-q2-update/bin/../lib/gcc/arm-none-eabi/9.3.1/../../../../arm-none-eabi/lib/thumb/v7e-m/nofp\libc.a(lib_a-stdio.o)
 .ARM.attributes
                0x0000135b       0x2e d:/program files/gnu arm embedded toolchain/9 2020-q2-update/bin/../lib/gcc/arm-none-eabi/9.3.1/../../../../arm-none-eabi/lib/thumb/v7e-m/nofp\libc.a(lib_a-wbuf.o)
 .ARM.attributes
                0x00001389       0x2e d:/program files/gnu arm embedded toolchain/9 2020-q2-update/bin/../lib/gcc/arm-none-eabi/9.3.1/../../../../arm-none-eabi/lib/thumb/v7e-m/nofp\libc.a(lib_a-wcrtomb.o)
 .ARM.attributes
                0x000013b7       0x2e d:/program files/gnu arm embedded toolchain/9 2020-q2-update/bin/../lib/gcc/arm-none-eabi/9.3.1/../../../../arm-none-eabi/lib/thumb/v7e-m/nofp\libc.a(lib_a-writer.o)
 .ARM.attributes
                0x000013e5       0x2e d:/program files/gnu arm embedded toolchain/9 2020-q2-update/bin/../lib/gcc/arm-none-eabi/9.3.1/../../../../arm-none-eabi/lib/thumb/v7e-m/nofp\libc.a(lib_a-closer.o)
 .ARM.attributes
                0x00001413       0x2e d:/program files/gnu arm embedded toolchain/9 2020-q2-update/bin/../lib/gcc/arm-none-eabi/9.3.1/../../../../arm-none-eabi/lib/thumb/v7e-m/nofp\libc.a(lib_a-fclose.o)
 .ARM.attributes
                0x00001441       0x2e d:/program files/gnu arm embedded toolchain/9 2020-q2-update/bin/../lib/gcc/arm-none-eabi/9.3.1/../../../../arm-none-eabi/lib/thumb/v7e-m/nofp\libc.a(lib_a-fstatr.o)
 .ARM.attributes
                0x0000146f       0x2e d:/program files/gnu arm embedded toolchain/9 2020-q2-update/bin/../lib/gcc/arm-none-eabi/9.3.1/../../../../arm-none-eabi/lib/thumb/v7e-m/nofp\libc.a(lib_a-isattyr.o)
 .ARM.attributes
                0x0000149d       0x2e d:/program files/gnu arm embedded toolchain/9 2020-q2-update/bin/../lib/gcc/arm-none-eabi/9.3.1/../../../../arm-none-eabi/lib/thumb/v7e-m/nofp\libc.a(lib_a-lseekr.o)
 .ARM.attributes
                0x000014cb       0x2e d:/program files/gnu arm embedded toolchain/9 2020-q2-update/bin/../lib/gcc/arm-none-eabi/9.3.1/../../../../arm-none-eabi/lib/thumb/v7e-m/nofp\libc.a(lib_a-readr.o)
 .ARM.attributes
                0x000014f9       0x2e d:/program files/gnu arm embedded toolchain/9 2020-q2-update/bin/../lib/gcc/arm-none-eabi/9.3.1/../../../../arm-none-eabi/lib/thumb/v7e-m/nofp\libnosys.a(close.o)
 .ARM.attributes
                0x00001527       0x2e d:/program files/gnu arm embedded toolchain/9 2020-q2-update/bin/../lib/gcc/arm-none-eabi/9.3.1/../../../../arm-none-eabi/lib/thumb/v7e-m/nofp\libnosys.a(fstat.o)
 .ARM.attributes
                0x00001555       0x2e d:/program files/gnu arm embedded toolchain/9 2020-q2-update/bin/../lib/gcc/arm-none-eabi/9.3.1/../../../../arm-none-eabi/lib/thumb/v7e-m/nofp\libnosys.a(getpid.o)
 .ARM.attributes
                0x00001583       0x2e d:/program files/gnu arm embedded toolchain/9 2020-q2-update/bin/../lib/gcc/arm-none-eabi/9.3.1/../../../../arm-none-eabi/lib/thumb/v7e-m/nofp\libnosys.a(isatty.o)
 .ARM.attributes
                0x000015b1       0x2e d:/program files/gnu arm embedded toolchain/9 2020-q2-update/bin/../lib/gcc/arm-none-eabi/9.3.1/../../../../arm-none-eabi/lib/thumb/v7e-m/nofp\libnosys.a(kill.o)
 .ARM.attributes
                0x000015df       0x2e d:/program files/gnu arm embedded toolchain/9 2020-q2-update/bin/../lib/gcc/arm-none-eabi/9.3.1/../../../../arm-none-eabi/lib/thumb/v7e-m/nofp\libnosys.a(lseek.o)
 .ARM.attributes
                0x0000160d       0x2e d:/program files/gnu arm embedded toolchain/9 2020-q2-update/bin/../lib/gcc/arm-none-eabi/9.3.1/../../../../arm-none-eabi/lib/thumb/v7e-m/nofp\libnosys.a(read.o)
 .ARM.attributes
                0x0000163b       0x2e d:/program files/gnu arm embedded toolchain/9 2020-q2-update/bin/../lib/gcc/arm-none-eabi/9.3.1/../../../../arm-none-eabi/lib/thumb/v7e-m/nofp\libnosys.a(sbrk.o)
 .ARM.attributes
                0x00001669       0x2e d:/program files/gnu arm embedded toolchain/9 2020-q2-update/bin/../lib/gcc/arm-none-eabi/9.3.1/../../../../arm-none-eabi/lib/thumb/v7e-m/nofp\libnosys.a(write.o)
 .ARM.attributes
                0x00001697       0x2e d:/program files/gnu arm embedded toolchain/9 2020-q2-update/bin/../lib/gcc/arm-none-eabi/9.3.1/../../../../arm-none-eabi/lib/thumb/v7e-m/nofp\libnosys.a(_exit.o)
 .ARM.attributes
                0x000016c5       0x1e d:/program files/gnu arm embedded toolchain/9 2020-q2-update/bin/../lib/gcc/arm-none-eabi/9.3.1/thumb/v7e-m/nofp/crtn.o
OUTPUT(./Objects/project.elf elf32-littlearm)
LOAD linker stubs
LOAD d:/program files/gnu arm embedded toolchain/9 2020-q2-update/bin/../lib/gcc/arm-none-eabi/9.3.1/../../../../arm-none-eabi/lib/thumb/v7e-m/nofp\libc.a
LOAD d:/program files/gnu arm embedded toolchain/9 2020-q2-update/bin/../lib/gcc/arm-none-eabi/9.3.1/../../../../arm-none-eabi/lib/thumb/v7e-m/nofp\libm.a
LOAD d:/program files/gnu arm embedded toolchain/9 2020-q2-update/bin/../lib/gcc/arm-none-eabi/9.3.1/thumb/v7e-m/nofp\libgcc.a

.debug_info     0x00000000    0x392c3
 .debug_info    0x00000000      0x855 ./objects/system_cm4.o
 .debug_info    0x00000855       0x22 ./objects/startup_cm4.o
 .debug_info    0x00000877     0x226e ./objects/printf-stdarg.o
 .debug_info    0x00002ae5      0x7cb ./objects/tremo_delay.o
 .debug_info    0x000032b0      0x90a ./objects/tremo_gpio.o
 .debug_info    0x00003bba      0x9ea ./objects/tremo_pwr.o
 .debug_info    0x000045a4     0x1153 ./objects/tremo_rcc.o
 .debug_info    0x000056f7     0x1b7c ./objects/tremo_rtc.o
 .debug_info    0x00007273      0x4b9 ./objects/tremo_system.o
 .debug_info    0x0000772c     0x1608 ./objects/tremo_uart.o
 .debug_info    0x00008d34     0x1ff8 ./objects/main.o
 .debug_info    0x0000ad2c      0xdf6 ./objects/tremo_it.o
 .debug_info    0x0000bb22     0x2f82 ./objects/classa.o
 .debug_info    0x0000eaa4      0xaec ./objects/strtohex.o
 .debug_info    0x0000f590      0xc08 ./objects/set_tx_duty_cycle_time.o
 .debug_info    0x00010198      0xc6d ./objects/gwlog.o
 .debug_info    0x00010e05     0x145b ./objects/iic.o
 .debug_info    0x00012260     0x126a ./objects/ads1115.o
 .debug_info    0x000134ca      0xd98 ./objects/bh1750.o
 .debug_info    0x00014262      0xe74 ./objects/sgp30.o
 .debug_info    0x000150d6     0x1186 ./objects/dht11.o
 .debug_info    0x0001625c     0x1700 ./objects/sha256.o
 .debug_info    0x0001795c      0xcd1 ./objects/gentriplet.o
 .debug_info    0x0001862d      0x185 ./objects/delay.o
 .debug_info    0x000187b2     0x1dfa ./objects/timer.o
 .debug_info    0x0001a5ac      0xeba ./objects/cmac.o
 .debug_info    0x0001b466     0x3533 ./objects/radio.o
 .debug_info    0x0001e999     0x3075 ./objects/sx126x.o
 .debug_info    0x00021a0e     0x1c9c ./objects/rtc-board.o
 .debug_info    0x000236aa     0x2693 ./objects/sx1262-board.o
 .debug_info    0x00025d3d      0xc5f ./objects/utilities.o
 .debug_info    0x0002699c     0x6335 ./objects/loramac.o
 .debug_info    0x0002ccd1     0x22a6 ./objects/loramacclassb.o
 .debug_info    0x0002ef77     0x11aa ./objects/loramacconfirmqueue.o
 .debug_info    0x00030121     0x13b0 ./objects/loramaccrypto.o
 .debug_info    0x000314d1     0x2866 ./objects/region.o
 .debug_info    0x00033d37     0x1ac1 ./objects/regioncommon.o
 .debug_info    0x000357f8     0x2e91 ./objects/regioncn470.o
 .debug_info    0x00038689      0xc3a ../../../drivers/crypto/lib/libcrypto.a(aes.o)

.debug_abbrev   0x00000000     0x815a
 .debug_abbrev  0x00000000      0x1e0 ./objects/system_cm4.o
 .debug_abbrev  0x000001e0       0x12 ./objects/startup_cm4.o
 .debug_abbrev  0x000001f2      0x51f ./objects/printf-stdarg.o
 .debug_abbrev  0x00000711      0x237 ./objects/tremo_delay.o
 .debug_abbrev  0x00000948      0x24a ./objects/tremo_gpio.o
 .debug_abbrev  0x00000b92      0x224 ./objects/tremo_pwr.o
 .debug_abbrev  0x00000db6      0x276 ./objects/tremo_rcc.o
 .debug_abbrev  0x0000102c      0x491 ./objects/tremo_rtc.o
 .debug_abbrev  0x000014bd      0x155 ./objects/tremo_system.o
 .debug_abbrev  0x00001612      0x402 ./objects/tremo_uart.o
 .debug_abbrev  0x00001a14      0x32a ./objects/main.o
 .debug_abbrev  0x00001d3e      0x31d ./objects/tremo_it.o
 .debug_abbrev  0x0000205b      0x500 ./objects/classa.o
 .debug_abbrev  0x0000255b      0x21b ./objects/strtohex.o
 .debug_abbrev  0x00002776      0x23b ./objects/set_tx_duty_cycle_time.o
 .debug_abbrev  0x000029b1      0x2f5 ./objects/gwlog.o
 .debug_abbrev  0x00002ca6      0x2ea ./objects/iic.o
 .debug_abbrev  0x00002f90      0x374 ./objects/ads1115.o
 .debug_abbrev  0x00003304      0x268 ./objects/bh1750.o
 .debug_abbrev  0x0000356c      0x2b1 ./objects/sgp30.o
 .debug_abbrev  0x0000381d      0x2de ./objects/dht11.o
 .debug_abbrev  0x00003afb      0x4ca ./objects/sha256.o
 .debug_abbrev  0x00003fc5      0x255 ./objects/gentriplet.o
 .debug_abbrev  0x0000421a      0x109 ./objects/delay.o
 .debug_abbrev  0x00004323      0x5a2 ./objects/timer.o
 .debug_abbrev  0x000048c5      0x284 ./objects/cmac.o
 .debug_abbrev  0x00004b49      0x57a ./objects/radio.o
 .debug_abbrev  0x000050c3      0x514 ./objects/sx126x.o
 .debug_abbrev  0x000055d7      0x51d ./objects/rtc-board.o
 .debug_abbrev  0x00005af4      0x510 ./objects/sx1262-board.o
 .debug_abbrev  0x00006004      0x25e ./objects/utilities.o
 .debug_abbrev  0x00006262      0x65e ./objects/loramac.o
 .debug_abbrev  0x000068c0      0x3a1 ./objects/loramacclassb.o
 .debug_abbrev  0x00006c61      0x323 ./objects/loramacconfirmqueue.o
 .debug_abbrev  0x00006f84      0x27a ./objects/loramaccrypto.o
 .debug_abbrev  0x000071fe      0x329 ./objects/region.o
 .debug_abbrev  0x00007527      0x4b8 ./objects/regioncommon.o
 .debug_abbrev  0x000079df      0x553 ./objects/regioncn470.o
 .debug_abbrev  0x00007f32      0x228 ../../../drivers/crypto/lib/libcrypto.a(aes.o)

.debug_loc      0x00000000    0x131ec
 .debug_loc     0x00000000       0xc3 ./objects/system_cm4.o
 .debug_loc     0x000000c3     0x277f ./objects/printf-stdarg.o
 .debug_loc     0x00002842      0x1d7 ./objects/tremo_delay.o
 .debug_loc     0x00002a19      0x860 ./objects/tremo_gpio.o
 .debug_loc     0x00003279      0x15f ./objects/tremo_pwr.o
 .debug_loc     0x000033d8      0x777 ./objects/tremo_rcc.o
 .debug_loc     0x00003b4f      0xedf ./objects/tremo_rtc.o
 .debug_loc     0x00004a2e       0x42 ./objects/tremo_system.o
 .debug_loc     0x00004a70      0x6fc ./objects/tremo_uart.o
 .debug_loc     0x0000516c       0xd3 ./objects/main.o
 .debug_loc     0x0000523f       0x83 ./objects/tremo_it.o
 .debug_loc     0x000052c2      0x291 ./objects/classa.o
 .debug_loc     0x00005553      0x133 ./objects/strtohex.o
 .debug_loc     0x00005686      0x1f0 ./objects/set_tx_duty_cycle_time.o
 .debug_loc     0x00005876      0x262 ./objects/gwlog.o
 .debug_loc     0x00005ad8      0x28c ./objects/iic.o
 .debug_loc     0x00005d64      0x5b8 ./objects/ads1115.o
 .debug_loc     0x0000631c      0x159 ./objects/bh1750.o
 .debug_loc     0x00006475       0xf6 ./objects/sgp30.o
 .debug_loc     0x0000656b      0x2c3 ./objects/dht11.o
 .debug_loc     0x0000682e      0xc0a ./objects/sha256.o
 .debug_loc     0x00007438       0xcf ./objects/gentriplet.o
 .debug_loc     0x00007507       0xb2 ./objects/delay.o
 .debug_loc     0x000075b9      0x6b0 ./objects/timer.o
 .debug_loc     0x00007c69      0x38c ./objects/cmac.o
 .debug_loc     0x00007ff5     0x15ed ./objects/radio.o
 .debug_loc     0x000095e2     0x11da ./objects/sx126x.o
 .debug_loc     0x0000a7bc      0x70f ./objects/rtc-board.o
 .debug_loc     0x0000aecb      0x82b ./objects/sx1262-board.o
 .debug_loc     0x0000b6f6      0x234 ./objects/utilities.o
 .debug_loc     0x0000b92a     0x392b ./objects/loramac.o
 .debug_loc     0x0000f255       0xe5 ./objects/loramacclassb.o
 .debug_loc     0x0000f33a      0x581 ./objects/loramacconfirmqueue.o
 .debug_loc     0x0000f8bb      0x8b3 ./objects/loramaccrypto.o
 .debug_loc     0x0001016e     0x103f ./objects/region.o
 .debug_loc     0x000111ad      0xad8 ./objects/regioncommon.o
 .debug_loc     0x00011c85     0x1483 ./objects/regioncn470.o
 .debug_loc     0x00013108       0xe4 ../../../drivers/crypto/lib/libcrypto.a(aes.o)

.debug_aranges  0x00000000     0x1248
 .debug_aranges
                0x00000000       0x28 ./objects/system_cm4.o
 .debug_aranges
                0x00000028       0x28 ./objects/startup_cm4.o
 .debug_aranges
                0x00000050       0x88 ./objects/printf-stdarg.o
 .debug_aranges
                0x000000d8       0x30 ./objects/tremo_delay.o
 .debug_aranges
                0x00000108       0x78 ./objects/tremo_gpio.o
 .debug_aranges
                0x00000180       0x58 ./objects/tremo_pwr.o
 .debug_aranges
                0x000001d8      0x178 ./objects/tremo_rcc.o
 .debug_aranges
                0x00000350      0x120 ./objects/tremo_rtc.o
 .debug_aranges
                0x00000470       0x28 ./objects/tremo_system.o
 .debug_aranges
                0x00000498       0x98 ./objects/tremo_uart.o
 .debug_aranges
                0x00000530       0x30 ./objects/main.o
 .debug_aranges
                0x00000560       0x60 ./objects/tremo_it.o
 .debug_aranges
                0x000005c0       0x50 ./objects/classa.o
 .debug_aranges
                0x00000610       0x20 ./objects/strtohex.o
 .debug_aranges
                0x00000630       0x20 ./objects/set_tx_duty_cycle_time.o
 .debug_aranges
                0x00000650       0x28 ./objects/gwlog.o
 .debug_aranges
                0x00000678       0x60 ./objects/iic.o
 .debug_aranges
                0x000006d8       0x40 ./objects/ads1115.o
 .debug_aranges
                0x00000718       0x28 ./objects/bh1750.o
 .debug_aranges
                0x00000740       0x30 ./objects/sgp30.o
 .debug_aranges
                0x00000770       0x38 ./objects/dht11.o
 .debug_aranges
                0x000007a8       0x50 ./objects/sha256.o
 .debug_aranges
                0x000007f8       0x20 ./objects/gentriplet.o
 .debug_aranges
                0x00000818       0x28 ./objects/delay.o
 .debug_aranges
                0x00000840       0x88 ./objects/timer.o
 .debug_aranges
                0x000008c8       0x38 ./objects/cmac.o
 .debug_aranges
                0x00000900      0x140 ./objects/radio.o
 .debug_aranges
                0x00000a40      0x198 ./objects/sx126x.o
 .debug_aranges
                0x00000bd8       0x78 ./objects/rtc-board.o
 .debug_aranges
                0x00000c50       0xd0 ./objects/sx1262-board.o
 .debug_aranges
                0x00000d20       0x50 ./objects/utilities.o
 .debug_aranges
                0x00000d70      0x148 ./objects/loramac.o
 .debug_aranges
                0x00000eb8       0x80 ./objects/loramacclassb.o
 .debug_aranges
                0x00000f38       0x78 ./objects/loramacconfirmqueue.o
 .debug_aranges
                0x00000fb0       0x50 ./objects/loramaccrypto.o
 .debug_aranges
                0x00001000       0xd8 ./objects/region.o
 .debug_aranges
                0x000010d8       0x88 ./objects/regioncommon.o
 .debug_aranges
                0x00001160       0xc8 ./objects/regioncn470.o
 .debug_aranges
                0x00001228       0x20 ../../../drivers/crypto/lib/libcrypto.a(aes.o)

.debug_ranges   0x00000000     0x1d40
 .debug_ranges  0x00000000       0x70 ./objects/system_cm4.o
 .debug_ranges  0x00000070       0x20 ./objects/startup_cm4.o
 .debug_ranges  0x00000090      0x1d0 ./objects/printf-stdarg.o
 .debug_ranges  0x00000260       0x58 ./objects/tremo_delay.o
 .debug_ranges  0x000002b8       0x68 ./objects/tremo_gpio.o
 .debug_ranges  0x00000320       0x60 ./objects/tremo_pwr.o
 .debug_ranges  0x00000380      0x180 ./objects/tremo_rcc.o
 .debug_ranges  0x00000500      0x140 ./objects/tremo_rtc.o
 .debug_ranges  0x00000640       0x18 ./objects/tremo_system.o
 .debug_ranges  0x00000658       0x88 ./objects/tremo_uart.o
 .debug_ranges  0x000006e0       0x38 ./objects/main.o
 .debug_ranges  0x00000718       0x50 ./objects/tremo_it.o
 .debug_ranges  0x00000768       0xd0 ./objects/classa.o
 .debug_ranges  0x00000838       0x10 ./objects/strtohex.o
 .debug_ranges  0x00000848       0x10 ./objects/set_tx_duty_cycle_time.o
 .debug_ranges  0x00000858       0x30 ./objects/gwlog.o
 .debug_ranges  0x00000888       0x50 ./objects/iic.o
 .debug_ranges  0x000008d8       0x30 ./objects/ads1115.o
 .debug_ranges  0x00000908       0x18 ./objects/bh1750.o
 .debug_ranges  0x00000920       0x20 ./objects/sgp30.o
 .debug_ranges  0x00000940       0x28 ./objects/dht11.o
 .debug_ranges  0x00000968      0x2c0 ./objects/sha256.o
 .debug_ranges  0x00000c28       0x10 ./objects/gentriplet.o
 .debug_ranges  0x00000c38       0x30 ./objects/delay.o
 .debug_ranges  0x00000c68       0xd8 ./objects/timer.o
 .debug_ranges  0x00000d40       0x98 ./objects/cmac.o
 .debug_ranges  0x00000dd8      0x1a8 ./objects/radio.o
 .debug_ranges  0x00000f80      0x1e8 ./objects/sx126x.o
 .debug_ranges  0x00001168      0x158 ./objects/rtc-board.o
 .debug_ranges  0x000012c0      0x188 ./objects/sx1262-board.o
 .debug_ranges  0x00001448       0x40 ./objects/utilities.o
 .debug_ranges  0x00001488      0x338 ./objects/loramac.o
 .debug_ranges  0x000017c0       0x70 ./objects/loramacclassb.o
 .debug_ranges  0x00001830      0x108 ./objects/loramacconfirmqueue.o
 .debug_ranges  0x00001938       0x40 ./objects/loramaccrypto.o
 .debug_ranges  0x00001978       0xc8 ./objects/region.o
 .debug_ranges  0x00001a40      0x160 ./objects/regioncommon.o
 .debug_ranges  0x00001ba0      0x1a0 ./objects/regioncn470.o

.debug_line     0x00000000    0x126ea
 .debug_line    0x00000000      0x2a5 ./objects/system_cm4.o
 .debug_line    0x000002a5       0x82 ./objects/startup_cm4.o
 .debug_line    0x00000327     0x10de ./objects/printf-stdarg.o
 .debug_line    0x00001405      0x2c7 ./objects/tremo_delay.o
 .debug_line    0x000016cc      0x6d9 ./objects/tremo_gpio.o
 .debug_line    0x00001da5      0x41d ./objects/tremo_pwr.o
 .debug_line    0x000021c2     0x11d1 ./objects/tremo_rcc.o
 .debug_line    0x00003393      0xe27 ./objects/tremo_rtc.o
 .debug_line    0x000041ba      0x225 ./objects/tremo_system.o
 .debug_line    0x000043df      0x73a ./objects/tremo_uart.o
 .debug_line    0x00004b19      0x428 ./objects/main.o
 .debug_line    0x00004f41      0x47c ./objects/tremo_it.o
 .debug_line    0x000053bd      0x871 ./objects/classa.o
 .debug_line    0x00005c2e      0x28e ./objects/strtohex.o
 .debug_line    0x00005ebc      0x2c8 ./objects/set_tx_duty_cycle_time.o
 .debug_line    0x00006184      0x250 ./objects/gwlog.o
 .debug_line    0x000063d4      0x4ae ./objects/iic.o
 .debug_line    0x00006882      0x57e ./objects/ads1115.o
 .debug_line    0x00006e00      0x2f2 ./objects/bh1750.o
 .debug_line    0x000070f2      0x342 ./objects/sgp30.o
 .debug_line    0x00007434      0x474 ./objects/dht11.o
 .debug_line    0x000078a8      0xa8d ./objects/sha256.o
 .debug_line    0x00008335      0x295 ./objects/gentriplet.o
 .debug_line    0x000085ca      0x19e ./objects/delay.o
 .debug_line    0x00008768      0x792 ./objects/timer.o
 .debug_line    0x00008efa      0x4ec ./objects/cmac.o
 .debug_line    0x000093e6      0xf56 ./objects/radio.o
 .debug_line    0x0000a33c      0xe9c ./objects/sx126x.o
 .debug_line    0x0000b1d8      0x6af ./objects/rtc-board.o
 .debug_line    0x0000b887      0x913 ./objects/sx1262-board.o
 .debug_line    0x0000c19a      0x322 ./objects/utilities.o
 .debug_line    0x0000c4bc     0x33a1 ./objects/loramac.o
 .debug_line    0x0000f85d      0x3a0 ./objects/loramacclassb.o
 .debug_line    0x0000fbfd      0x66f ./objects/loramacconfirmqueue.o
 .debug_line    0x0001026c      0x5a6 ./objects/loramaccrypto.o
 .debug_line    0x00010812      0x676 ./objects/region.o
 .debug_line    0x00010e88      0x7ed ./objects/regioncommon.o
 .debug_line    0x00011675      0xe0d ./objects/regioncn470.o
 .debug_line    0x00012482      0x268 ../../../drivers/crypto/lib/libcrypto.a(aes.o)

.debug_str      0x00000000     0x9c16
 .debug_str     0x00000000      0x60b ./objects/system_cm4.o
                                0x67e (size before relaxing)
 .debug_str     0x0000060b       0x35 ./objects/startup_cm4.o
                                 0x93 (size before relaxing)
 .debug_str     0x00000640      0x5aa ./objects/printf-stdarg.o
                                0x875 (size before relaxing)
 .debug_str     0x00000bea       0xe0 ./objects/tremo_delay.o
                                0x62f (size before relaxing)
 .debug_str     0x00000cca      0x6a3 ./objects/tremo_gpio.o
                                0x915 (size before relaxing)
 .debug_str     0x0000136d       0xeb ./objects/tremo_pwr.o
                                0x6ec (size before relaxing)
 .debug_str     0x00001458      0xeed ./objects/tremo_rcc.o
                               0x1586 (size before relaxing)
 .debug_str     0x00002345      0x874 ./objects/tremo_rtc.o
                               0x12f4 (size before relaxing)
 .debug_str     0x00002bb9       0x66 ./objects/tremo_system.o
                                0x3ea (size before relaxing)
 .debug_str     0x00002c1f      0x4d2 ./objects/tremo_uart.o
                                0xfd3 (size before relaxing)
 .debug_str     0x000030f1      0x173 ./objects/main.o
                               0x12fe (size before relaxing)
 .debug_str     0x00003264      0x147 ./objects/tremo_it.o
                                0x7c2 (size before relaxing)
 .debug_str     0x000033ab     0x1658 ./objects/classa.o
                               0x2147 (size before relaxing)
 .debug_str     0x00004a03       0x29 ./objects/strtohex.o
                                0x62c (size before relaxing)
 .debug_str     0x00004a2c       0x1d ./objects/set_tx_duty_cycle_time.o
                                0x6db (size before relaxing)
 .debug_str     0x00004a49       0x1d ./objects/gwlog.o
                                0x693 (size before relaxing)
 .debug_str     0x00004a66       0x65 ./objects/iic.o
                                0xb64 (size before relaxing)
 .debug_str     0x00004acb       0x4e ./objects/ads1115.o
                                0x76d (size before relaxing)
 .debug_str     0x00004b19        0xd ./objects/bh1750.o
                                0x6d0 (size before relaxing)
 .debug_str     0x00004b26       0x1a ./objects/sgp30.o
                                0x6e5 (size before relaxing)
 .debug_str     0x00004b40       0x48 ./objects/dht11.o
                                0xb70 (size before relaxing)
 .debug_str     0x00004b88       0x92 ./objects/sha256.o
                                0x700 (size before relaxing)
 .debug_str     0x00004c1a       0x1d ./objects/gentriplet.o
                                0x6dd (size before relaxing)
 .debug_str     0x00004c37       0x25 ./objects/delay.o
                                0x271 (size before relaxing)
 .debug_str     0x00004c5c      0x8c0 ./objects/timer.o
                               0x1245 (size before relaxing)
 .debug_str     0x0000551c       0xa5 ./objects/cmac.o
                                0x6d4 (size before relaxing)
 .debug_str     0x000055c1      0x9fa ./objects/radio.o
                               0x1a9e (size before relaxing)
 .debug_str     0x00005fbb      0x8f6 ./objects/sx126x.o
                               0x1d97 (size before relaxing)
 .debug_str     0x000068b1      0x23d ./objects/rtc-board.o
                               0x13a0 (size before relaxing)
 .debug_str     0x00006aee       0xc1 ./objects/sx1262-board.o
                               0x19b2 (size before relaxing)
 .debug_str     0x00006baf       0x3f ./objects/utilities.o
                                0x6bb (size before relaxing)
 .debug_str     0x00006bee     0x21a3 ./objects/loramac.o
                               0x4231 (size before relaxing)
 .debug_str     0x00008d91       0xee ./objects/loramacclassb.o
                               0x21da (size before relaxing)
 .debug_str     0x00008e7f      0x115 ./objects/loramacconfirmqueue.o
                                0xe05 (size before relaxing)
 .debug_str     0x00008f94       0xd7 ./objects/loramaccrypto.o
                                0x856 (size before relaxing)
 .debug_str     0x0000906b      0x3c9 ./objects/region.o
                               0x1d43 (size before relaxing)
 .debug_str     0x00009434      0x3c5 ./objects/regioncommon.o
                                0xf25 (size before relaxing)
 .debug_str     0x000097f9      0x14d ./objects/regioncn470.o
                               0x1eb7 (size before relaxing)
 .debug_str     0x00009946      0x2d0 ../../../drivers/crypto/lib/libcrypto.a(aes.o)
                                0x74e (size before relaxing)

.comment        0x00000000       0xc5
 .comment       0x00000000       0x4c ./objects/system_cm4.o
                                 0x4d (size before relaxing)
 .comment       0x0000004c       0x4d ./objects/printf-stdarg.o
 .comment       0x0000004c       0x4d ./objects/tremo_delay.o
 .comment       0x0000004c       0x4d ./objects/tremo_gpio.o
 .comment       0x0000004c       0x4d ./objects/tremo_pwr.o
 .comment       0x0000004c       0x4d ./objects/tremo_rcc.o
 .comment       0x0000004c       0x4d ./objects/tremo_rtc.o
 .comment       0x0000004c       0x4d ./objects/tremo_system.o
 .comment       0x0000004c       0x4d ./objects/tremo_uart.o
 .comment       0x0000004c       0x4d ./objects/main.o
 .comment       0x0000004c       0x4d ./objects/tremo_it.o
 .comment       0x0000004c       0x4d ./objects/classa.o
 .comment       0x0000004c       0x4d ./objects/strtohex.o
 .comment       0x0000004c       0x4d ./objects/set_tx_duty_cycle_time.o
 .comment       0x0000004c       0x4d ./objects/gwlog.o
 .comment       0x0000004c       0x4d ./objects/iic.o
 .comment       0x0000004c       0x4d ./objects/ads1115.o
 .comment       0x0000004c       0x4d ./objects/bh1750.o
 .comment       0x0000004c       0x4d ./objects/sgp30.o
 .comment       0x0000004c       0x4d ./objects/dht11.o
 .comment       0x0000004c       0x4d ./objects/sha256.o
 .comment       0x0000004c       0x4d ./objects/gentriplet.o
 .comment       0x0000004c       0x4d ./objects/delay.o
 .comment       0x0000004c       0x4d ./objects/timer.o
 .comment       0x0000004c       0x4d ./objects/cmac.o
 .comment       0x0000004c       0x4d ./objects/radio.o
 .comment       0x0000004c       0x4d ./objects/sx126x.o
 .comment       0x0000004c       0x4d ./objects/rtc-board.o
 .comment       0x0000004c       0x4d ./objects/sx1262-board.o
 .comment       0x0000004c       0x4d ./objects/utilities.o
 .comment       0x0000004c       0x4d ./objects/loramac.o
 .comment       0x0000004c       0x4d ./objects/loramacclassb.o
 .comment       0x0000004c       0x4d ./objects/loramacconfirmqueue.o
 .comment       0x0000004c       0x4d ./objects/loramaccrypto.o
 .comment       0x0000004c       0x4d ./objects/region.o
 .comment       0x0000004c       0x4d ./objects/regioncommon.o
 .comment       0x0000004c       0x4d ./objects/regioncn470.o
 .comment       0x0000004c       0x79 ../../../drivers/crypto/lib/libcrypto.a(aes.o)
                                 0x7a (size before relaxing)

.debug_frame    0x00000000     0x4b30
 .debug_frame   0x00000000       0x3c ./objects/system_cm4.o
 .debug_frame   0x0000003c      0x2a4 ./objects/printf-stdarg.o
 .debug_frame   0x000002e0       0x54 ./objects/tremo_delay.o
 .debug_frame   0x00000334      0x114 ./objects/tremo_gpio.o
 .debug_frame   0x00000448       0xa8 ./objects/tremo_pwr.o
 .debug_frame   0x000004f0      0x2d8 ./objects/tremo_rcc.o
 .debug_frame   0x000007c8      0x318 ./objects/tremo_rtc.o
 .debug_frame   0x00000ae0       0x30 ./objects/tremo_system.o
 .debug_frame   0x00000b10      0x138 ./objects/tremo_uart.o
 .debug_frame   0x00000c48       0x68 ./objects/main.o
 .debug_frame   0x00000cb0       0xe8 ./objects/tremo_it.o
 .debug_frame   0x00000d98       0xd8 ./objects/classa.o
 .debug_frame   0x00000e70       0x30 ./objects/strtohex.o
 .debug_frame   0x00000ea0       0x38 ./objects/set_tx_duty_cycle_time.o
 .debug_frame   0x00000ed8       0x54 ./objects/gwlog.o
 .debug_frame   0x00000f2c      0x108 ./objects/iic.o
 .debug_frame   0x00001034      0x110 ./objects/ads1115.o
 .debug_frame   0x00001144       0x50 ./objects/bh1750.o
 .debug_frame   0x00001194       0x60 ./objects/sgp30.o
 .debug_frame   0x000011f4       0x98 ./objects/dht11.o
 .debug_frame   0x0000128c       0xd8 ./objects/sha256.o
 .debug_frame   0x00001364       0x38 ./objects/gentriplet.o
 .debug_frame   0x0000139c       0x30 ./objects/delay.o
 .debug_frame   0x000013cc      0x184 ./objects/timer.o
 .debug_frame   0x00001550       0x8c ./objects/cmac.o
 .debug_frame   0x000015dc      0x3d8 ./objects/radio.o
 .debug_frame   0x000019b4      0x4bc ./objects/sx126x.o
 .debug_frame   0x00001e70      0x15c ./objects/rtc-board.o
 .debug_frame   0x00001fcc      0x254 ./objects/sx1262-board.o
 .debug_frame   0x00002220       0x8c ./objects/utilities.o
 .debug_frame   0x000022ac      0x4dc ./objects/loramac.o
 .debug_frame   0x00002788      0x1f0 ./objects/loramacclassb.o
 .debug_frame   0x00002978      0x124 ./objects/loramacconfirmqueue.o
 .debug_frame   0x00002a9c      0x100 ./objects/loramaccrypto.o
 .debug_frame   0x00002b9c      0x200 ./objects/region.o
 .debug_frame   0x00002d9c      0x188 ./objects/regioncommon.o
 .debug_frame   0x00002f24      0x2b0 ./objects/regioncn470.o
 .debug_frame   0x000031d4       0x88 ../../../drivers/crypto/lib/libcrypto.a(aes.o)
 .debug_frame   0x0000325c       0x30 d:/program files/gnu arm embedded toolchain/9 2020-q2-update/bin/../lib/gcc/arm-none-eabi/9.3.1/../../../../arm-none-eabi/lib/thumb/v7e-m/nofp\libm.a(lib_a-s_ceil.o)
 .debug_frame   0x0000328c       0x30 d:/program files/gnu arm embedded toolchain/9 2020-q2-update/bin/../lib/gcc/arm-none-eabi/9.3.1/../../../../arm-none-eabi/lib/thumb/v7e-m/nofp\libm.a(lib_a-s_floor.o)
 .debug_frame   0x000032bc       0x48 d:/program files/gnu arm embedded toolchain/9 2020-q2-update/bin/../lib/gcc/arm-none-eabi/9.3.1/../../../../arm-none-eabi/lib/thumb/v7e-m/nofp\libm.a(lib_a-s_rint.o)
 .debug_frame   0x00003304       0x30 d:/program files/gnu arm embedded toolchain/9 2020-q2-update/bin/../lib/gcc/arm-none-eabi/9.3.1/../../../../arm-none-eabi/lib/thumb/v7e-m/nofp\libm.a(lib_a-s_round.o)
 .debug_frame   0x00003334       0x34 d:/program files/gnu arm embedded toolchain/9 2020-q2-update/bin/../lib/gcc/arm-none-eabi/9.3.1/../../../../arm-none-eabi/lib/thumb/v7e-m/nofp\libm.a(lib_a-w_pow.o)
 .debug_frame   0x00003368       0x64 d:/program files/gnu arm embedded toolchain/9 2020-q2-update/bin/../lib/gcc/arm-none-eabi/9.3.1/../../../../arm-none-eabi/lib/thumb/v7e-m/nofp\libm.a(lib_a-e_pow.o)
 .debug_frame   0x000033cc       0x30 d:/program files/gnu arm embedded toolchain/9 2020-q2-update/bin/../lib/gcc/arm-none-eabi/9.3.1/../../../../arm-none-eabi/lib/thumb/v7e-m/nofp\libm.a(lib_a-e_sqrt.o)
 .debug_frame   0x000033fc       0x20 d:/program files/gnu arm embedded toolchain/9 2020-q2-update/bin/../lib/gcc/arm-none-eabi/9.3.1/../../../../arm-none-eabi/lib/thumb/v7e-m/nofp\libm.a(lib_a-s_fabs.o)
 .debug_frame   0x0000341c       0x20 d:/program files/gnu arm embedded toolchain/9 2020-q2-update/bin/../lib/gcc/arm-none-eabi/9.3.1/../../../../arm-none-eabi/lib/thumb/v7e-m/nofp\libm.a(lib_a-s_finite.o)
 .debug_frame   0x0000343c       0x20 d:/program files/gnu arm embedded toolchain/9 2020-q2-update/bin/../lib/gcc/arm-none-eabi/9.3.1/../../../../arm-none-eabi/lib/thumb/v7e-m/nofp\libm.a(lib_a-s_nan.o)
 .debug_frame   0x0000345c       0x30 d:/program files/gnu arm embedded toolchain/9 2020-q2-update/bin/../lib/gcc/arm-none-eabi/9.3.1/../../../../arm-none-eabi/lib/thumb/v7e-m/nofp\libm.a(lib_a-s_scalbn.o)
 .debug_frame   0x0000348c       0xac d:/program files/gnu arm embedded toolchain/9 2020-q2-update/bin/../lib/gcc/arm-none-eabi/9.3.1/thumb/v7e-m/nofp\libgcc.a(_arm_addsubdf3.o)
 .debug_frame   0x00003538       0x50 d:/program files/gnu arm embedded toolchain/9 2020-q2-update/bin/../lib/gcc/arm-none-eabi/9.3.1/thumb/v7e-m/nofp\libgcc.a(_arm_muldivdf3.o)
 .debug_frame   0x00003588       0xc4 d:/program files/gnu arm embedded toolchain/9 2020-q2-update/bin/../lib/gcc/arm-none-eabi/9.3.1/thumb/v7e-m/nofp\libgcc.a(_arm_cmpdf2.o)
 .debug_frame   0x0000364c       0x20 d:/program files/gnu arm embedded toolchain/9 2020-q2-update/bin/../lib/gcc/arm-none-eabi/9.3.1/thumb/v7e-m/nofp\libgcc.a(_arm_unorddf2.o)
 .debug_frame   0x0000366c       0x24 d:/program files/gnu arm embedded toolchain/9 2020-q2-update/bin/../lib/gcc/arm-none-eabi/9.3.1/thumb/v7e-m/nofp\libgcc.a(_arm_fixdfsi.o)
 .debug_frame   0x00003690       0x24 d:/program files/gnu arm embedded toolchain/9 2020-q2-update/bin/../lib/gcc/arm-none-eabi/9.3.1/thumb/v7e-m/nofp\libgcc.a(_arm_fixunsdfsi.o)
 .debug_frame   0x000036b4       0x2c d:/program files/gnu arm embedded toolchain/9 2020-q2-update/bin/../lib/gcc/arm-none-eabi/9.3.1/thumb/v7e-m/nofp\libgcc.a(_aeabi_uldivmod.o)
 .debug_frame   0x000036e0       0x2c d:/program files/gnu arm embedded toolchain/9 2020-q2-update/bin/../lib/gcc/arm-none-eabi/9.3.1/thumb/v7e-m/nofp\libgcc.a(_fixunsdfdi.o)
 .debug_frame   0x0000370c       0x34 d:/program files/gnu arm embedded toolchain/9 2020-q2-update/bin/../lib/gcc/arm-none-eabi/9.3.1/thumb/v7e-m/nofp\libgcc.a(_udivmoddi4.o)
 .debug_frame   0x00003740       0x20 d:/program files/gnu arm embedded toolchain/9 2020-q2-update/bin/../lib/gcc/arm-none-eabi/9.3.1/../../../../arm-none-eabi/lib/thumb/v7e-m/nofp\libc.a(lib_a-errno.o)
 .debug_frame   0x00003760       0x2c d:/program files/gnu arm embedded toolchain/9 2020-q2-update/bin/../lib/gcc/arm-none-eabi/9.3.1/../../../../arm-none-eabi/lib/thumb/v7e-m/nofp\libc.a(lib_a-init.o)
 .debug_frame   0x0000378c       0x38 d:/program files/gnu arm embedded toolchain/9 2020-q2-update/bin/../lib/gcc/arm-none-eabi/9.3.1/../../../../arm-none-eabi/lib/thumb/v7e-m/nofp\libc.a(lib_a-memset.o)
 .debug_frame   0x000037c4       0x60 d:/program files/gnu arm embedded toolchain/9 2020-q2-update/bin/../lib/gcc/arm-none-eabi/9.3.1/../../../../arm-none-eabi/lib/thumb/v7e-m/nofp\libc.a(lib_a-vsnprintf.o)
 .debug_frame   0x00003824       0x5c d:/program files/gnu arm embedded toolchain/9 2020-q2-update/bin/../lib/gcc/arm-none-eabi/9.3.1/../../../../arm-none-eabi/lib/thumb/v7e-m/nofp\libc.a(lib_a-__call_atexit.o)
 .debug_frame   0x00003880       0x20 d:/program files/gnu arm embedded toolchain/9 2020-q2-update/bin/../lib/gcc/arm-none-eabi/9.3.1/../../../../arm-none-eabi/lib/thumb/v7e-m/nofp\libc.a(lib_a-atexit.o)
 .debug_frame   0x000038a0       0x34 d:/program files/gnu arm embedded toolchain/9 2020-q2-update/bin/../lib/gcc/arm-none-eabi/9.3.1/../../../../arm-none-eabi/lib/thumb/v7e-m/nofp\libc.a(lib_a-fini.o)
 .debug_frame   0x000038d4       0xb0 d:/program files/gnu arm embedded toolchain/9 2020-q2-update/bin/../lib/gcc/arm-none-eabi/9.3.1/../../../../arm-none-eabi/lib/thumb/v7e-m/nofp\libc.a(lib_a-lock.o)
 .debug_frame   0x00003984       0x44 d:/program files/gnu arm embedded toolchain/9 2020-q2-update/bin/../lib/gcc/arm-none-eabi/9.3.1/../../../../arm-none-eabi/lib/thumb/v7e-m/nofp\libc.a(lib_a-svfprintf.o)
 .debug_frame   0x000039c8       0x34 d:/program files/gnu arm embedded toolchain/9 2020-q2-update/bin/../lib/gcc/arm-none-eabi/9.3.1/../../../../arm-none-eabi/lib/thumb/v7e-m/nofp\libc.a(lib_a-__atexit.o)
 .debug_frame   0x000039fc       0x8c d:/program files/gnu arm embedded toolchain/9 2020-q2-update/bin/../lib/gcc/arm-none-eabi/9.3.1/../../../../arm-none-eabi/lib/thumb/v7e-m/nofp\libc.a(lib_a-dtoa.o)
 .debug_frame   0x00003a88       0x8c d:/program files/gnu arm embedded toolchain/9 2020-q2-update/bin/../lib/gcc/arm-none-eabi/9.3.1/../../../../arm-none-eabi/lib/thumb/v7e-m/nofp\libc.a(lib_a-freer.o)
 .debug_frame   0x00003b14       0x40 d:/program files/gnu arm embedded toolchain/9 2020-q2-update/bin/../lib/gcc/arm-none-eabi/9.3.1/../../../../arm-none-eabi/lib/thumb/v7e-m/nofp\libc.a(lib_a-localeconv.o)
 .debug_frame   0x00003b54       0x4c d:/program files/gnu arm embedded toolchain/9 2020-q2-update/bin/../lib/gcc/arm-none-eabi/9.3.1/../../../../arm-none-eabi/lib/thumb/v7e-m/nofp\libc.a(lib_a-mallocr.o)
 .debug_frame   0x00003ba0       0x30 d:/program files/gnu arm embedded toolchain/9 2020-q2-update/bin/../lib/gcc/arm-none-eabi/9.3.1/../../../../arm-none-eabi/lib/thumb/v7e-m/nofp\libc.a(lib_a-mlock.o)
 .debug_frame   0x00003bd0      0x260 d:/program files/gnu arm embedded toolchain/9 2020-q2-update/bin/../lib/gcc/arm-none-eabi/9.3.1/../../../../arm-none-eabi/lib/thumb/v7e-m/nofp\libc.a(lib_a-mprec.o)
 .debug_frame   0x00003e30       0x30 d:/program files/gnu arm embedded toolchain/9 2020-q2-update/bin/../lib/gcc/arm-none-eabi/9.3.1/../../../../arm-none-eabi/lib/thumb/v7e-m/nofp\libc.a(lib_a-s_frexp.o)
 .debug_frame   0x00003e60       0x2c d:/program files/gnu arm embedded toolchain/9 2020-q2-update/bin/../lib/gcc/arm-none-eabi/9.3.1/../../../../arm-none-eabi/lib/thumb/v7e-m/nofp\libc.a(lib_a-sbrkr.o)
 .debug_frame   0x00003e8c       0x38 d:/program files/gnu arm embedded toolchain/9 2020-q2-update/bin/../lib/gcc/arm-none-eabi/9.3.1/../../../../arm-none-eabi/lib/thumb/v7e-m/nofp\libc.a(lib_a-strncpy.o)
 .debug_frame   0x00003ec4       0x78 d:/program files/gnu arm embedded toolchain/9 2020-q2-update/bin/../lib/gcc/arm-none-eabi/9.3.1/../../../../arm-none-eabi/lib/thumb/v7e-m/nofp\libc.a(lib_a-svfiprintf.o)
 .debug_frame   0x00003f3c       0x40 d:/program files/gnu arm embedded toolchain/9 2020-q2-update/bin/../lib/gcc/arm-none-eabi/9.3.1/../../../../arm-none-eabi/lib/thumb/v7e-m/nofp\libc.a(lib_a-assert.o)
 .debug_frame   0x00003f7c       0x28 d:/program files/gnu arm embedded toolchain/9 2020-q2-update/bin/../lib/gcc/arm-none-eabi/9.3.1/../../../../arm-none-eabi/lib/thumb/v7e-m/nofp\libc.a(lib_a-callocr.o)
 .debug_frame   0x00003fa4       0x70 d:/program files/gnu arm embedded toolchain/9 2020-q2-update/bin/../lib/gcc/arm-none-eabi/9.3.1/../../../../arm-none-eabi/lib/thumb/v7e-m/nofp\libc.a(lib_a-fiprintf.o)
 .debug_frame   0x00004014       0x54 d:/program files/gnu arm embedded toolchain/9 2020-q2-update/bin/../lib/gcc/arm-none-eabi/9.3.1/../../../../arm-none-eabi/lib/thumb/v7e-m/nofp\libc.a(lib_a-locale.o)
 .debug_frame   0x00004068       0x4c d:/program files/gnu arm embedded toolchain/9 2020-q2-update/bin/../lib/gcc/arm-none-eabi/9.3.1/../../../../arm-none-eabi/lib/thumb/v7e-m/nofp\libc.a(lib_a-mbtowc_r.o)
 .debug_frame   0x000040b4       0x40 d:/program files/gnu arm embedded toolchain/9 2020-q2-update/bin/../lib/gcc/arm-none-eabi/9.3.1/../../../../arm-none-eabi/lib/thumb/v7e-m/nofp\libc.a(lib_a-memmove.o)
 .debug_frame   0x000040f4       0x48 d:/program files/gnu arm embedded toolchain/9 2020-q2-update/bin/../lib/gcc/arm-none-eabi/9.3.1/../../../../arm-none-eabi/lib/thumb/v7e-m/nofp\libc.a(lib_a-reallocr.o)
 .debug_frame   0x0000413c       0x60 d:/program files/gnu arm embedded toolchain/9 2020-q2-update/bin/../lib/gcc/arm-none-eabi/9.3.1/../../../../arm-none-eabi/lib/thumb/v7e-m/nofp\libc.a(lib_a-reent.o)
 .debug_frame   0x0000419c       0xd0 d:/program files/gnu arm embedded toolchain/9 2020-q2-update/bin/../lib/gcc/arm-none-eabi/9.3.1/../../../../arm-none-eabi/lib/thumb/v7e-m/nofp\libc.a(lib_a-vfiprintf.o)
 .debug_frame   0x0000426c       0x3c d:/program files/gnu arm embedded toolchain/9 2020-q2-update/bin/../lib/gcc/arm-none-eabi/9.3.1/../../../../arm-none-eabi/lib/thumb/v7e-m/nofp\libc.a(lib_a-wctomb_r.o)
 .debug_frame   0x000042a8       0x2c d:/program files/gnu arm embedded toolchain/9 2020-q2-update/bin/../lib/gcc/arm-none-eabi/9.3.1/../../../../arm-none-eabi/lib/thumb/v7e-m/nofp\libc.a(lib_a-wsetup.o)
 .debug_frame   0x000042d4       0x28 d:/program files/gnu arm embedded toolchain/9 2020-q2-update/bin/../lib/gcc/arm-none-eabi/9.3.1/../../../../arm-none-eabi/lib/thumb/v7e-m/nofp\libc.a(lib_a-abort.o)
 .debug_frame   0x000042fc       0x5c d:/program files/gnu arm embedded toolchain/9 2020-q2-update/bin/../lib/gcc/arm-none-eabi/9.3.1/../../../../arm-none-eabi/lib/thumb/v7e-m/nofp\libc.a(lib_a-fflush.o)
 .debug_frame   0x00004358      0x14c d:/program files/gnu arm embedded toolchain/9 2020-q2-update/bin/../lib/gcc/arm-none-eabi/9.3.1/../../../../arm-none-eabi/lib/thumb/v7e-m/nofp\libc.a(lib_a-findfp.o)
 .debug_frame   0x000044a4       0x9c d:/program files/gnu arm embedded toolchain/9 2020-q2-update/bin/../lib/gcc/arm-none-eabi/9.3.1/../../../../arm-none-eabi/lib/thumb/v7e-m/nofp\libc.a(lib_a-fputwc.o)
 .debug_frame   0x00004540       0x64 d:/program files/gnu arm embedded toolchain/9 2020-q2-update/bin/../lib/gcc/arm-none-eabi/9.3.1/../../../../arm-none-eabi/lib/thumb/v7e-m/nofp\libc.a(lib_a-fvwrite.o)
 .debug_frame   0x000045a4       0x54 d:/program files/gnu arm embedded toolchain/9 2020-q2-update/bin/../lib/gcc/arm-none-eabi/9.3.1/../../../../arm-none-eabi/lib/thumb/v7e-m/nofp\libc.a(lib_a-fwalk.o)
 .debug_frame   0x000045f8       0x6c d:/program files/gnu arm embedded toolchain/9 2020-q2-update/bin/../lib/gcc/arm-none-eabi/9.3.1/../../../../arm-none-eabi/lib/thumb/v7e-m/nofp\libc.a(lib_a-makebuf.o)
 .debug_frame   0x00004664       0xe0 d:/program files/gnu arm embedded toolchain/9 2020-q2-update/bin/../lib/gcc/arm-none-eabi/9.3.1/../../../../arm-none-eabi/lib/thumb/v7e-m/nofp\libc.a(lib_a-signal.o)
 .debug_frame   0x00004744       0x3c d:/program files/gnu arm embedded toolchain/9 2020-q2-update/bin/../lib/gcc/arm-none-eabi/9.3.1/../../../../arm-none-eabi/lib/thumb/v7e-m/nofp\libc.a(lib_a-signalr.o)
 .debug_frame   0x00004780       0x8c d:/program files/gnu arm embedded toolchain/9 2020-q2-update/bin/../lib/gcc/arm-none-eabi/9.3.1/../../../../arm-none-eabi/lib/thumb/v7e-m/nofp\libc.a(lib_a-stdio.o)
 .debug_frame   0x0000480c       0x40 d:/program files/gnu arm embedded toolchain/9 2020-q2-update/bin/../lib/gcc/arm-none-eabi/9.3.1/../../../../arm-none-eabi/lib/thumb/v7e-m/nofp\libc.a(lib_a-wbuf.o)
 .debug_frame   0x0000484c       0x60 d:/program files/gnu arm embedded toolchain/9 2020-q2-update/bin/../lib/gcc/arm-none-eabi/9.3.1/../../../../arm-none-eabi/lib/thumb/v7e-m/nofp\libc.a(lib_a-wcrtomb.o)
 .debug_frame   0x000048ac       0x2c d:/program files/gnu arm embedded toolchain/9 2020-q2-update/bin/../lib/gcc/arm-none-eabi/9.3.1/../../../../arm-none-eabi/lib/thumb/v7e-m/nofp\libc.a(lib_a-writer.o)
 .debug_frame   0x000048d8       0x2c d:/program files/gnu arm embedded toolchain/9 2020-q2-update/bin/../lib/gcc/arm-none-eabi/9.3.1/../../../../arm-none-eabi/lib/thumb/v7e-m/nofp\libc.a(lib_a-closer.o)
 .debug_frame   0x00004904       0x3c d:/program files/gnu arm embedded toolchain/9 2020-q2-update/bin/../lib/gcc/arm-none-eabi/9.3.1/../../../../arm-none-eabi/lib/thumb/v7e-m/nofp\libc.a(lib_a-fclose.o)
 .debug_frame   0x00004940       0x2c d:/program files/gnu arm embedded toolchain/9 2020-q2-update/bin/../lib/gcc/arm-none-eabi/9.3.1/../../../../arm-none-eabi/lib/thumb/v7e-m/nofp\libc.a(lib_a-fstatr.o)
 .debug_frame   0x0000496c       0x2c d:/program files/gnu arm embedded toolchain/9 2020-q2-update/bin/../lib/gcc/arm-none-eabi/9.3.1/../../../../arm-none-eabi/lib/thumb/v7e-m/nofp\libc.a(lib_a-isattyr.o)
 .debug_frame   0x00004998       0x2c d:/program files/gnu arm embedded toolchain/9 2020-q2-update/bin/../lib/gcc/arm-none-eabi/9.3.1/../../../../arm-none-eabi/lib/thumb/v7e-m/nofp\libc.a(lib_a-lseekr.o)
 .debug_frame   0x000049c4       0x2c d:/program files/gnu arm embedded toolchain/9 2020-q2-update/bin/../lib/gcc/arm-none-eabi/9.3.1/../../../../arm-none-eabi/lib/thumb/v7e-m/nofp\libc.a(lib_a-readr.o)
 .debug_frame   0x000049f0       0x20 d:/program files/gnu arm embedded toolchain/9 2020-q2-update/bin/../lib/gcc/arm-none-eabi/9.3.1/../../../../arm-none-eabi/lib/thumb/v7e-m/nofp\libnosys.a(close.o)
 .debug_frame   0x00004a10       0x20 d:/program files/gnu arm embedded toolchain/9 2020-q2-update/bin/../lib/gcc/arm-none-eabi/9.3.1/../../../../arm-none-eabi/lib/thumb/v7e-m/nofp\libnosys.a(fstat.o)
 .debug_frame   0x00004a30       0x20 d:/program files/gnu arm embedded toolchain/9 2020-q2-update/bin/../lib/gcc/arm-none-eabi/9.3.1/../../../../arm-none-eabi/lib/thumb/v7e-m/nofp\libnosys.a(getpid.o)
 .debug_frame   0x00004a50       0x20 d:/program files/gnu arm embedded toolchain/9 2020-q2-update/bin/../lib/gcc/arm-none-eabi/9.3.1/../../../../arm-none-eabi/lib/thumb/v7e-m/nofp\libnosys.a(isatty.o)
 .debug_frame   0x00004a70       0x20 d:/program files/gnu arm embedded toolchain/9 2020-q2-update/bin/../lib/gcc/arm-none-eabi/9.3.1/../../../../arm-none-eabi/lib/thumb/v7e-m/nofp\libnosys.a(kill.o)
 .debug_frame   0x00004a90       0x20 d:/program files/gnu arm embedded toolchain/9 2020-q2-update/bin/../lib/gcc/arm-none-eabi/9.3.1/../../../../arm-none-eabi/lib/thumb/v7e-m/nofp\libnosys.a(lseek.o)
 .debug_frame   0x00004ab0       0x20 d:/program files/gnu arm embedded toolchain/9 2020-q2-update/bin/../lib/gcc/arm-none-eabi/9.3.1/../../../../arm-none-eabi/lib/thumb/v7e-m/nofp\libnosys.a(read.o)
 .debug_frame   0x00004ad0       0x20 d:/program files/gnu arm embedded toolchain/9 2020-q2-update/bin/../lib/gcc/arm-none-eabi/9.3.1/../../../../arm-none-eabi/lib/thumb/v7e-m/nofp\libnosys.a(sbrk.o)
 .debug_frame   0x00004af0       0x20 d:/program files/gnu arm embedded toolchain/9 2020-q2-update/bin/../lib/gcc/arm-none-eabi/9.3.1/../../../../arm-none-eabi/lib/thumb/v7e-m/nofp\libnosys.a(write.o)
 .debug_frame   0x00004b10       0x20 d:/program files/gnu arm embedded toolchain/9 2020-q2-update/bin/../lib/gcc/arm-none-eabi/9.3.1/../../../../arm-none-eabi/lib/thumb/v7e-m/nofp\libnosys.a(_exit.o)

.stab           0x00000000       0xcc
 .stab          0x00000000       0x24 d:/program files/gnu arm embedded toolchain/9 2020-q2-update/bin/../lib/gcc/arm-none-eabi/9.3.1/../../../../arm-none-eabi/lib/thumb/v7e-m/nofp\libnosys.a(close.o)
 .stab          0x00000024       0x18 d:/program files/gnu arm embedded toolchain/9 2020-q2-update/bin/../lib/gcc/arm-none-eabi/9.3.1/../../../../arm-none-eabi/lib/thumb/v7e-m/nofp\libnosys.a(fstat.o)
                                 0x24 (size before relaxing)
 .stab          0x0000003c       0x18 d:/program files/gnu arm embedded toolchain/9 2020-q2-update/bin/../lib/gcc/arm-none-eabi/9.3.1/../../../../arm-none-eabi/lib/thumb/v7e-m/nofp\libnosys.a(getpid.o)
                                 0x24 (size before relaxing)
 .stab          0x00000054       0x18 d:/program files/gnu arm embedded toolchain/9 2020-q2-update/bin/../lib/gcc/arm-none-eabi/9.3.1/../../../../arm-none-eabi/lib/thumb/v7e-m/nofp\libnosys.a(isatty.o)
                                 0x24 (size before relaxing)
 .stab          0x0000006c       0x18 d:/program files/gnu arm embedded toolchain/9 2020-q2-update/bin/../lib/gcc/arm-none-eabi/9.3.1/../../../../arm-none-eabi/lib/thumb/v7e-m/nofp\libnosys.a(kill.o)
                                 0x24 (size before relaxing)
 .stab          0x00000084       0x18 d:/program files/gnu arm embedded toolchain/9 2020-q2-update/bin/../lib/gcc/arm-none-eabi/9.3.1/../../../../arm-none-eabi/lib/thumb/v7e-m/nofp\libnosys.a(lseek.o)
                                 0x24 (size before relaxing)
 .stab          0x0000009c       0x18 d:/program files/gnu arm embedded toolchain/9 2020-q2-update/bin/../lib/gcc/arm-none-eabi/9.3.1/../../../../arm-none-eabi/lib/thumb/v7e-m/nofp\libnosys.a(read.o)
                                 0x24 (size before relaxing)
 .stab          0x000000b4       0x18 d:/program files/gnu arm embedded toolchain/9 2020-q2-update/bin/../lib/gcc/arm-none-eabi/9.3.1/../../../../arm-none-eabi/lib/thumb/v7e-m/nofp\libnosys.a(write.o)
                                 0x24 (size before relaxing)

.stabstr        0x00000000      0x1b9
 .stabstr       0x00000000      0x1b9 d:/program files/gnu arm embedded toolchain/9 2020-q2-update/bin/../lib/gcc/arm-none-eabi/9.3.1/../../../../arm-none-eabi/lib/thumb/v7e-m/nofp\libnosys.a(close.o)
